(lp1
ccopy_reg
_reconstructor
p2
(cfatiando.mesher
Prism
p3
c__builtin__
object
p4
NtRp5
(dp6
S'y2'
p7
F2400
sS'y1'
p8
F2200
sS'props'
p9
(dp10
S'density'
p11
I1000
ssS'x2'
p12
F3800
sS'x1'
p13
F3600
sS'z1'
p14
F0
sS'z2'
p15
F250
sbag2
(g3
g4
NtRp16
(dp17
g7
F2600
sg8
F2400
sg9
(dp18
g11
I1000
ssg12
F3600
sg13
F3400
sg14
F0
sg15
F250
sbag2
(g3
g4
NtRp19
(dp20
g7
F2600
sg8
F2400
sg9
(dp21
g11
I1000
ssg12
F3800
sg13
F3600
sg14
F0
sg15
F250
sbag2
(g3
g4
NtRp22
(dp23
g7
F2600
sg8
F2400
sg9
(dp24
g11
I1000
ssg12
F4000
sg13
F3800
sg14
F0
sg15
F250
sbag2
(g3
g4
NtRp25
(dp26
g7
F2800
sg8
F2600
sg9
(dp27
g11
I1000
ssg12
F3200
sg13
F3000
sg14
F0
sg15
F250
sbag2
(g3
g4
NtRp28
(dp29
g7
F2800
sg8
F2600
sg9
(dp30
g11
I1000
ssg12
F3400
sg13
F3200
sg14
F0
sg15
F250
sbag2
(g3
g4
NtRp31
(dp32
g7
F2800
sg8
F2600
sg9
(dp33
g11
I1000
ssg12
F3600
sg13
F3400
sg14
F0
sg15
F250
sbag2
(g3
g4
NtRp34
(dp35
g7
F2800
sg8
F2600
sg9
(dp36
g11
I1000
ssg12
F3800
sg13
F3600
sg14
F0
sg15
F250
sbag2
(g3
g4
NtRp37
(dp38
g7
F2800
sg8
F2600
sg9
(dp39
g11
I1000
ssg12
F4000
sg13
F3800
sg14
F0
sg15
F250
sbag2
(g3
g4
NtRp40
(dp41
g7
F2800
sg8
F2600
sg9
(dp42
g11
I1000
ssg12
F4200
sg13
F4000
sg14
F0
sg15
F250
sbag2
(g3
g4
NtRp43
(dp44
g7
F3000
sg8
F2800
sg9
(dp45
g11
I1000
ssg12
F3000
sg13
F2800
sg14
F0
sg15
F250
sbag2
(g3
g4
NtRp46
(dp47
g7
F3000
sg8
F2800
sg9
(dp48
g11
I1000
ssg12
F3200
sg13
F3000
sg14
F0
sg15
F250
sbag2
(g3
g4
NtRp49
(dp50
g7
F3000
sg8
F2800
sg9
(dp51
g11
I1000
ssg12
F3400
sg13
F3200
sg14
F0
sg15
F250
sbag2
(g3
g4
NtRp52
(dp53
g7
F3000
sg8
F2800
sg9
(dp54
g11
I1000
ssg12
F3600
sg13
F3400
sg14
F0
sg15
F250
sbag2
(g3
g4
NtRp55
(dp56
g7
F3000
sg8
F2800
sg9
(dp57
g11
I1000
ssg12
F3800
sg13
F3600
sg14
F0
sg15
F250
sbag2
(g3
g4
NtRp58
(dp59
g7
F3000
sg8
F2800
sg9
(dp60
g11
I1000
ssg12
F4000
sg13
F3800
sg14
F0
sg15
F250
sbag2
(g3
g4
NtRp61
(dp62
g7
F3000
sg8
F2800
sg9
(dp63
g11
I1000
ssg12
F4200
sg13
F4000
sg14
F0
sg15
F250
sbag2
(g3
g4
NtRp64
(dp65
g7
F3000
sg8
F2800
sg9
(dp66
g11
I1000
ssg12
F4400
sg13
F4200
sg14
F0
sg15
F250
sbag2
(g3
g4
NtRp67
(dp68
g7
F3200
sg8
F3000
sg9
(dp69
g11
I1000
ssg12
F2800
sg13
F2600
sg14
F0
sg15
F250
sbag2
(g3
g4
NtRp70
(dp71
g7
F3200
sg8
F3000
sg9
(dp72
g11
I1000
ssg12
F3000
sg13
F2800
sg14
F0
sg15
F250
sbag2
(g3
g4
NtRp73
(dp74
g7
F3200
sg8
F3000
sg9
(dp75
g11
I1000
ssg12
F3200
sg13
F3000
sg14
F0
sg15
F250
sbag2
(g3
g4
NtRp76
(dp77
g7
F3200
sg8
F3000
sg9
(dp78
g11
I1000
ssg12
F3400
sg13
F3200
sg14
F0
sg15
F250
sbag2
(g3
g4
NtRp79
(dp80
g7
F3200
sg8
F3000
sg9
(dp81
g11
I1000
ssg12
F3600
sg13
F3400
sg14
F0
sg15
F250
sbag2
(g3
g4
NtRp82
(dp83
g7
F3200
sg8
F3000
sg9
(dp84
g11
I1000
ssg12
F3800
sg13
F3600
sg14
F0
sg15
F250
sbag2
(g3
g4
NtRp85
(dp86
g7
F3200
sg8
F3000
sg9
(dp87
g11
I1000
ssg12
F4000
sg13
F3800
sg14
F0
sg15
F250
sbag2
(g3
g4
NtRp88
(dp89
g7
F3200
sg8
F3000
sg9
(dp90
g11
I1000
ssg12
F4200
sg13
F4000
sg14
F0
sg15
F250
sbag2
(g3
g4
NtRp91
(dp92
g7
F3200
sg8
F3000
sg9
(dp93
g11
I1000
ssg12
F4400
sg13
F4200
sg14
F0
sg15
F250
sbag2
(g3
g4
NtRp94
(dp95
g7
F3200
sg8
F3000
sg9
(dp96
g11
I1000
ssg12
F4600
sg13
F4400
sg14
F0
sg15
F250
sbag2
(g3
g4
NtRp97
(dp98
g7
F3400
sg8
F3200
sg9
(dp99
g11
I1000
ssg12
F2600
sg13
F2400
sg14
F0
sg15
F250
sbag2
(g3
g4
NtRp100
(dp101
g7
F3400
sg8
F3200
sg9
(dp102
g11
I1000
ssg12
F2800
sg13
F2600
sg14
F0
sg15
F250
sbag2
(g3
g4
NtRp103
(dp104
g7
F3400
sg8
F3200
sg9
(dp105
g11
I1000
ssg12
F3000
sg13
F2800
sg14
F0
sg15
F250
sbag2
(g3
g4
NtRp106
(dp107
g7
F3400
sg8
F3200
sg9
(dp108
g11
I1000
ssg12
F3200
sg13
F3000
sg14
F0
sg15
F250
sbag2
(g3
g4
NtRp109
(dp110
g7
F3400
sg8
F3200
sg9
(dp111
g11
I1000
ssg12
F3400
sg13
F3200
sg14
F0
sg15
F250
sbag2
(g3
g4
NtRp112
(dp113
g7
F3400
sg8
F3200
sg9
(dp114
g11
I1000
ssg12
F3600
sg13
F3400
sg14
F0
sg15
F250
sbag2
(g3
g4
NtRp115
(dp116
g7
F3400
sg8
F3200
sg9
(dp117
g11
I1000
ssg12
F3800
sg13
F3600
sg14
F0
sg15
F250
sbag2
(g3
g4
NtRp118
(dp119
g7
F3400
sg8
F3200
sg9
(dp120
g11
I1000
ssg12
F4000
sg13
F3800
sg14
F0
sg15
F250
sbag2
(g3
g4
NtRp121
(dp122
g7
F3400
sg8
F3200
sg9
(dp123
g11
I1000
ssg12
F4200
sg13
F4000
sg14
F0
sg15
F250
sbag2
(g3
g4
NtRp124
(dp125
g7
F3400
sg8
F3200
sg9
(dp126
g11
I1000
ssg12
F4400
sg13
F4200
sg14
F0
sg15
F250
sbag2
(g3
g4
NtRp127
(dp128
g7
F3400
sg8
F3200
sg9
(dp129
g11
I1000
ssg12
F4600
sg13
F4400
sg14
F0
sg15
F250
sbag2
(g3
g4
NtRp130
(dp131
g7
F3400
sg8
F3200
sg9
(dp132
g11
I1000
ssg12
F4800
sg13
F4600
sg14
F0
sg15
F250
sbag2
(g3
g4
NtRp133
(dp134
g7
F3400
sg8
F3200
sg9
(dp135
g11
I1000
ssg12
F5000
sg13
F4800
sg14
F0
sg15
F250
sbag2
(g3
g4
NtRp136
(dp137
g7
F3600
sg8
F3400
sg9
(dp138
g11
I1000
ssg12
F2400
sg13
F2200
sg14
F0
sg15
F250
sbag2
(g3
g4
NtRp139
(dp140
g7
F3600
sg8
F3400
sg9
(dp141
g11
I1000
ssg12
F2600
sg13
F2400
sg14
F0
sg15
F250
sbag2
(g3
g4
NtRp142
(dp143
g7
F3600
sg8
F3400
sg9
(dp144
g11
I1000
ssg12
F2800
sg13
F2600
sg14
F0
sg15
F250
sbag2
(g3
g4
NtRp145
(dp146
g7
F3600
sg8
F3400
sg9
(dp147
g11
I1000
ssg12
F3000
sg13
F2800
sg14
F0
sg15
F250
sbag2
(g3
g4
NtRp148
(dp149
g7
F3600
sg8
F3400
sg9
(dp150
g11
I1000
ssg12
F3200
sg13
F3000
sg14
F0
sg15
F250
sbag2
(g3
g4
NtRp151
(dp152
g7
F3600
sg8
F3400
sg9
(dp153
g11
I1000
ssg12
F3400
sg13
F3200
sg14
F0
sg15
F250
sbag2
(g3
g4
NtRp154
(dp155
g7
F3600
sg8
F3400
sg9
(dp156
g11
I1000
ssg12
F3600
sg13
F3400
sg14
F0
sg15
F250
sbag2
(g3
g4
NtRp157
(dp158
g7
F3600
sg8
F3400
sg9
(dp159
g11
I1000
ssg12
F3800
sg13
F3600
sg14
F0
sg15
F250
sbag2
(g3
g4
NtRp160
(dp161
g7
F3600
sg8
F3400
sg9
(dp162
g11
I1000
ssg12
F4000
sg13
F3800
sg14
F0
sg15
F250
sbag2
(g3
g4
NtRp163
(dp164
g7
F3600
sg8
F3400
sg9
(dp165
g11
I1000
ssg12
F4200
sg13
F4000
sg14
F0
sg15
F250
sbag2
(g3
g4
NtRp166
(dp167
g7
F3600
sg8
F3400
sg9
(dp168
g11
I1000
ssg12
F4400
sg13
F4200
sg14
F0
sg15
F250
sbag2
(g3
g4
NtRp169
(dp170
g7
F3600
sg8
F3400
sg9
(dp171
g11
I1000
ssg12
F4600
sg13
F4400
sg14
F0
sg15
F250
sbag2
(g3
g4
NtRp172
(dp173
g7
F3600
sg8
F3400
sg9
(dp174
g11
I1000
ssg12
F4800
sg13
F4600
sg14
F0
sg15
F250
sbag2
(g3
g4
NtRp175
(dp176
g7
F3600
sg8
F3400
sg9
(dp177
g11
I1000
ssg12
F5000
sg13
F4800
sg14
F0
sg15
F250
sbag2
(g3
g4
NtRp178
(dp179
g7
F3800
sg8
F3600
sg9
(dp180
g11
I1000
ssg12
F2400
sg13
F2200
sg14
F0
sg15
F250
sbag2
(g3
g4
NtRp181
(dp182
g7
F3800
sg8
F3600
sg9
(dp183
g11
I1000
ssg12
F2600
sg13
F2400
sg14
F0
sg15
F250
sbag2
(g3
g4
NtRp184
(dp185
g7
F3800
sg8
F3600
sg9
(dp186
g11
I1000
ssg12
F2800
sg13
F2600
sg14
F0
sg15
F250
sbag2
(g3
g4
NtRp187
(dp188
g7
F3800
sg8
F3600
sg9
(dp189
g11
I1000
ssg12
F3000
sg13
F2800
sg14
F0
sg15
F250
sbag2
(g3
g4
NtRp190
(dp191
g7
F3800
sg8
F3600
sg9
(dp192
g11
I1000
ssg12
F3200
sg13
F3000
sg14
F0
sg15
F250
sbag2
(g3
g4
NtRp193
(dp194
g7
F3800
sg8
F3600
sg9
(dp195
g11
I1000
ssg12
F3400
sg13
F3200
sg14
F0
sg15
F250
sbag2
(g3
g4
NtRp196
(dp197
g7
F3800
sg8
F3600
sg9
(dp198
g11
I1000
ssg12
F3600
sg13
F3400
sg14
F0
sg15
F250
sbag2
(g3
g4
NtRp199
(dp200
g7
F3800
sg8
F3600
sg9
(dp201
g11
I1000
ssg12
F3800
sg13
F3600
sg14
F0
sg15
F250
sbag2
(g3
g4
NtRp202
(dp203
g7
F3800
sg8
F3600
sg9
(dp204
g11
I1000
ssg12
F4000
sg13
F3800
sg14
F0
sg15
F250
sbag2
(g3
g4
NtRp205
(dp206
g7
F3800
sg8
F3600
sg9
(dp207
g11
I1000
ssg12
F4200
sg13
F4000
sg14
F0
sg15
F250
sbag2
(g3
g4
NtRp208
(dp209
g7
F3800
sg8
F3600
sg9
(dp210
g11
I1000
ssg12
F4400
sg13
F4200
sg14
F0
sg15
F250
sbag2
(g3
g4
NtRp211
(dp212
g7
F3800
sg8
F3600
sg9
(dp213
g11
I1000
ssg12
F4600
sg13
F4400
sg14
F0
sg15
F250
sbag2
(g3
g4
NtRp214
(dp215
g7
F3800
sg8
F3600
sg9
(dp216
g11
I1000
ssg12
F4800
sg13
F4600
sg14
F0
sg15
F250
sbag2
(g3
g4
NtRp217
(dp218
g7
F3800
sg8
F3600
sg9
(dp219
g11
I1000
ssg12
F5000
sg13
F4800
sg14
F0
sg15
F250
sbag2
(g3
g4
NtRp220
(dp221
g7
F3800
sg8
F3600
sg9
(dp222
g11
I1000
ssg12
F5200
sg13
F5000
sg14
F0
sg15
F250
sbag2
(g3
g4
NtRp223
(dp224
g7
F3800
sg8
F3600
sg9
(dp225
g11
I1000
ssg12
F5400
sg13
F5200
sg14
F0
sg15
F250
sbag2
(g3
g4
NtRp226
(dp227
g7
F4000
sg8
F3800
sg9
(dp228
g11
I1000
ssg12
F2800
sg13
F2600
sg14
F0
sg15
F250
sbag2
(g3
g4
NtRp229
(dp230
g7
F4000
sg8
F3800
sg9
(dp231
g11
I1000
ssg12
F3000
sg13
F2800
sg14
F0
sg15
F250
sbag2
(g3
g4
NtRp232
(dp233
g7
F4000
sg8
F3800
sg9
(dp234
g11
I1000
ssg12
F3200
sg13
F3000
sg14
F0
sg15
F250
sbag2
(g3
g4
NtRp235
(dp236
g7
F4000
sg8
F3800
sg9
(dp237
g11
I1000
ssg12
F3400
sg13
F3200
sg14
F0
sg15
F250
sbag2
(g3
g4
NtRp238
(dp239
g7
F4000
sg8
F3800
sg9
(dp240
g11
I1000
ssg12
F3600
sg13
F3400
sg14
F0
sg15
F250
sbag2
(g3
g4
NtRp241
(dp242
g7
F4000
sg8
F3800
sg9
(dp243
g11
I1000
ssg12
F3800
sg13
F3600
sg14
F0
sg15
F250
sbag2
(g3
g4
NtRp244
(dp245
g7
F4000
sg8
F3800
sg9
(dp246
g11
I1000
ssg12
F4000
sg13
F3800
sg14
F0
sg15
F250
sbag2
(g3
g4
NtRp247
(dp248
g7
F4000
sg8
F3800
sg9
(dp249
g11
I1000
ssg12
F4200
sg13
F4000
sg14
F0
sg15
F250
sbag2
(g3
g4
NtRp250
(dp251
g7
F4000
sg8
F3800
sg9
(dp252
g11
I1000
ssg12
F4400
sg13
F4200
sg14
F0
sg15
F250
sbag2
(g3
g4
NtRp253
(dp254
g7
F4000
sg8
F3800
sg9
(dp255
g11
I1000
ssg12
F4600
sg13
F4400
sg14
F0
sg15
F250
sbag2
(g3
g4
NtRp256
(dp257
g7
F4000
sg8
F3800
sg9
(dp258
g11
I1000
ssg12
F4800
sg13
F4600
sg14
F0
sg15
F250
sbag2
(g3
g4
NtRp259
(dp260
g7
F4000
sg8
F3800
sg9
(dp261
g11
I1000
ssg12
F5000
sg13
F4800
sg14
F0
sg15
F250
sbag2
(g3
g4
NtRp262
(dp263
g7
F4000
sg8
F3800
sg9
(dp264
g11
I1000
ssg12
F5200
sg13
F5000
sg14
F0
sg15
F250
sbag2
(g3
g4
NtRp265
(dp266
g7
F4000
sg8
F3800
sg9
(dp267
g11
I1000
ssg12
F5400
sg13
F5200
sg14
F0
sg15
F250
sbag2
(g3
g4
NtRp268
(dp269
g7
F4200
sg8
F4000
sg9
(dp270
g11
I1000
ssg12
F3000
sg13
F2800
sg14
F0
sg15
F250
sbag2
(g3
g4
NtRp271
(dp272
g7
F4200
sg8
F4000
sg9
(dp273
g11
I1000
ssg12
F3200
sg13
F3000
sg14
F0
sg15
F250
sbag2
(g3
g4
NtRp274
(dp275
g7
F4200
sg8
F4000
sg9
(dp276
g11
I1000
ssg12
F3400
sg13
F3200
sg14
F0
sg15
F250
sbag2
(g3
g4
NtRp277
(dp278
g7
F4200
sg8
F4000
sg9
(dp279
g11
I1000
ssg12
F3600
sg13
F3400
sg14
F0
sg15
F250
sbag2
(g3
g4
NtRp280
(dp281
g7
F4200
sg8
F4000
sg9
(dp282
g11
I1000
ssg12
F3800
sg13
F3600
sg14
F0
sg15
F250
sbag2
(g3
g4
NtRp283
(dp284
g7
F4200
sg8
F4000
sg9
(dp285
g11
I1000
ssg12
F4000
sg13
F3800
sg14
F0
sg15
F250
sbag2
(g3
g4
NtRp286
(dp287
g7
F4200
sg8
F4000
sg9
(dp288
g11
I1000
ssg12
F4200
sg13
F4000
sg14
F0
sg15
F250
sbag2
(g3
g4
NtRp289
(dp290
g7
F4200
sg8
F4000
sg9
(dp291
g11
I1000
ssg12
F4400
sg13
F4200
sg14
F0
sg15
F250
sbag2
(g3
g4
NtRp292
(dp293
g7
F4200
sg8
F4000
sg9
(dp294
g11
I1000
ssg12
F4600
sg13
F4400
sg14
F0
sg15
F250
sbag2
(g3
g4
NtRp295
(dp296
g7
F4200
sg8
F4000
sg9
(dp297
g11
I1000
ssg12
F4800
sg13
F4600
sg14
F0
sg15
F250
sbag2
(g3
g4
NtRp298
(dp299
g7
F4200
sg8
F4000
sg9
(dp300
g11
I1000
ssg12
F5000
sg13
F4800
sg14
F0
sg15
F250
sbag2
(g3
g4
NtRp301
(dp302
g7
F4200
sg8
F4000
sg9
(dp303
g11
I1000
ssg12
F5200
sg13
F5000
sg14
F0
sg15
F250
sbag2
(g3
g4
NtRp304
(dp305
g7
F4200
sg8
F4000
sg9
(dp306
g11
I1000
ssg12
F5400
sg13
F5200
sg14
F0
sg15
F250
sbag2
(g3
g4
NtRp307
(dp308
g7
F4200
sg8
F4000
sg9
(dp309
g11
I1000
ssg12
F5600
sg13
F5400
sg14
F0
sg15
F250
sbag2
(g3
g4
NtRp310
(dp311
g7
F4200
sg8
F4000
sg9
(dp312
g11
I1000
ssg12
F5800
sg13
F5600
sg14
F0
sg15
F250
sbag2
(g3
g4
NtRp313
(dp314
g7
F4400
sg8
F4200
sg9
(dp315
g11
I1000
ssg12
F3200
sg13
F3000
sg14
F0
sg15
F250
sbag2
(g3
g4
NtRp316
(dp317
g7
F4400
sg8
F4200
sg9
(dp318
g11
I1000
ssg12
F3400
sg13
F3200
sg14
F0
sg15
F250
sbag2
(g3
g4
NtRp319
(dp320
g7
F4400
sg8
F4200
sg9
(dp321
g11
I1000
ssg12
F3600
sg13
F3400
sg14
F0
sg15
F250
sbag2
(g3
g4
NtRp322
(dp323
g7
F4400
sg8
F4200
sg9
(dp324
g11
I1000
ssg12
F3800
sg13
F3600
sg14
F0
sg15
F250
sbag2
(g3
g4
NtRp325
(dp326
g7
F4400
sg8
F4200
sg9
(dp327
g11
I1000
ssg12
F4000
sg13
F3800
sg14
F0
sg15
F250
sbag2
(g3
g4
NtRp328
(dp329
g7
F4400
sg8
F4200
sg9
(dp330
g11
I1000
ssg12
F4200
sg13
F4000
sg14
F0
sg15
F250
sbag2
(g3
g4
NtRp331
(dp332
g7
F4400
sg8
F4200
sg9
(dp333
g11
I1000
ssg12
F4400
sg13
F4200
sg14
F0
sg15
F250
sbag2
(g3
g4
NtRp334
(dp335
g7
F4400
sg8
F4200
sg9
(dp336
g11
I1000
ssg12
F4600
sg13
F4400
sg14
F0
sg15
F250
sbag2
(g3
g4
NtRp337
(dp338
g7
F4400
sg8
F4200
sg9
(dp339
g11
I1000
ssg12
F4800
sg13
F4600
sg14
F0
sg15
F250
sbag2
(g3
g4
NtRp340
(dp341
g7
F4400
sg8
F4200
sg9
(dp342
g11
I1000
ssg12
F5000
sg13
F4800
sg14
F0
sg15
F250
sbag2
(g3
g4
NtRp343
(dp344
g7
F4400
sg8
F4200
sg9
(dp345
g11
I1000
ssg12
F5200
sg13
F5000
sg14
F0
sg15
F250
sbag2
(g3
g4
NtRp346
(dp347
g7
F4400
sg8
F4200
sg9
(dp348
g11
I1000
ssg12
F5400
sg13
F5200
sg14
F0
sg15
F250
sbag2
(g3
g4
NtRp349
(dp350
g7
F4400
sg8
F4200
sg9
(dp351
g11
I1000
ssg12
F5600
sg13
F5400
sg14
F0
sg15
F250
sbag2
(g3
g4
NtRp352
(dp353
g7
F4400
sg8
F4200
sg9
(dp354
g11
I1000
ssg12
F5800
sg13
F5600
sg14
F0
sg15
F250
sbag2
(g3
g4
NtRp355
(dp356
g7
F4400
sg8
F4200
sg9
(dp357
g11
I1000
ssg12
F6000
sg13
F5800
sg14
F0
sg15
F250
sbag2
(g3
g4
NtRp358
(dp359
g7
F4600
sg8
F4400
sg9
(dp360
g11
I1000
ssg12
F3400
sg13
F3200
sg14
F0
sg15
F250
sbag2
(g3
g4
NtRp361
(dp362
g7
F4600
sg8
F4400
sg9
(dp363
g11
I1000
ssg12
F3600
sg13
F3400
sg14
F0
sg15
F250
sbag2
(g3
g4
NtRp364
(dp365
g7
F4600
sg8
F4400
sg9
(dp366
g11
I1000
ssg12
F3800
sg13
F3600
sg14
F0
sg15
F250
sbag2
(g3
g4
NtRp367
(dp368
g7
F4600
sg8
F4400
sg9
(dp369
g11
I1000
ssg12
F4000
sg13
F3800
sg14
F0
sg15
F250
sbag2
(g3
g4
NtRp370
(dp371
g7
F4600
sg8
F4400
sg9
(dp372
g11
I1000
ssg12
F4200
sg13
F4000
sg14
F0
sg15
F250
sbag2
(g3
g4
NtRp373
(dp374
g7
F4600
sg8
F4400
sg9
(dp375
g11
I1000
ssg12
F4400
sg13
F4200
sg14
F0
sg15
F250
sbag2
(g3
g4
NtRp376
(dp377
g7
F4600
sg8
F4400
sg9
(dp378
g11
I1000
ssg12
F4600
sg13
F4400
sg14
F0
sg15
F250
sbag2
(g3
g4
NtRp379
(dp380
g7
F4600
sg8
F4400
sg9
(dp381
g11
I1000
ssg12
F4800
sg13
F4600
sg14
F0
sg15
F250
sbag2
(g3
g4
NtRp382
(dp383
g7
F4600
sg8
F4400
sg9
(dp384
g11
I1000
ssg12
F5000
sg13
F4800
sg14
F0
sg15
F250
sbag2
(g3
g4
NtRp385
(dp386
g7
F4600
sg8
F4400
sg9
(dp387
g11
I1000
ssg12
F5200
sg13
F5000
sg14
F0
sg15
F250
sbag2
(g3
g4
NtRp388
(dp389
g7
F4600
sg8
F4400
sg9
(dp390
g11
I1000
ssg12
F5400
sg13
F5200
sg14
F0
sg15
F250
sbag2
(g3
g4
NtRp391
(dp392
g7
F4600
sg8
F4400
sg9
(dp393
g11
I1000
ssg12
F5600
sg13
F5400
sg14
F0
sg15
F250
sbag2
(g3
g4
NtRp394
(dp395
g7
F4600
sg8
F4400
sg9
(dp396
g11
I1000
ssg12
F5800
sg13
F5600
sg14
F0
sg15
F250
sbag2
(g3
g4
NtRp397
(dp398
g7
F4600
sg8
F4400
sg9
(dp399
g11
I1000
ssg12
F6000
sg13
F5800
sg14
F0
sg15
F250
sbag2
(g3
g4
NtRp400
(dp401
g7
F4600
sg8
F4400
sg9
(dp402
g11
I1000
ssg12
F6200
sg13
F6000
sg14
F0
sg15
F250
sbag2
(g3
g4
NtRp403
(dp404
g7
F4800
sg8
F4600
sg9
(dp405
g11
I1000
ssg12
F3600
sg13
F3400
sg14
F0
sg15
F250
sbag2
(g3
g4
NtRp406
(dp407
g7
F4800
sg8
F4600
sg9
(dp408
g11
I1000
ssg12
F3800
sg13
F3600
sg14
F0
sg15
F250
sbag2
(g3
g4
NtRp409
(dp410
g7
F4800
sg8
F4600
sg9
(dp411
g11
I1000
ssg12
F4000
sg13
F3800
sg14
F0
sg15
F250
sbag2
(g3
g4
NtRp412
(dp413
g7
F4800
sg8
F4600
sg9
(dp414
g11
I1000
ssg12
F4200
sg13
F4000
sg14
F0
sg15
F250
sbag2
(g3
g4
NtRp415
(dp416
g7
F4800
sg8
F4600
sg9
(dp417
g11
I1000
ssg12
F4400
sg13
F4200
sg14
F0
sg15
F250
sbag2
(g3
g4
NtRp418
(dp419
g7
F4800
sg8
F4600
sg9
(dp420
g11
I1000
ssg12
F4600
sg13
F4400
sg14
F0
sg15
F250
sbag2
(g3
g4
NtRp421
(dp422
g7
F4800
sg8
F4600
sg9
(dp423
g11
I1000
ssg12
F4800
sg13
F4600
sg14
F0
sg15
F250
sbag2
(g3
g4
NtRp424
(dp425
g7
F4800
sg8
F4600
sg9
(dp426
g11
I1000
ssg12
F5000
sg13
F4800
sg14
F0
sg15
F250
sbag2
(g3
g4
NtRp427
(dp428
g7
F4800
sg8
F4600
sg9
(dp429
g11
I1000
ssg12
F5200
sg13
F5000
sg14
F0
sg15
F250
sbag2
(g3
g4
NtRp430
(dp431
g7
F4800
sg8
F4600
sg9
(dp432
g11
I1000
ssg12
F5400
sg13
F5200
sg14
F0
sg15
F250
sbag2
(g3
g4
NtRp433
(dp434
g7
F4800
sg8
F4600
sg9
(dp435
g11
I1000
ssg12
F5600
sg13
F5400
sg14
F0
sg15
F250
sbag2
(g3
g4
NtRp436
(dp437
g7
F4800
sg8
F4600
sg9
(dp438
g11
I1000
ssg12
F5800
sg13
F5600
sg14
F0
sg15
F250
sbag2
(g3
g4
NtRp439
(dp440
g7
F4800
sg8
F4600
sg9
(dp441
g11
I1000
ssg12
F6000
sg13
F5800
sg14
F0
sg15
F250
sbag2
(g3
g4
NtRp442
(dp443
g7
F4800
sg8
F4600
sg9
(dp444
g11
I1000
ssg12
F6200
sg13
F6000
sg14
F0
sg15
F250
sbag2
(g3
g4
NtRp445
(dp446
g7
F4800
sg8
F4600
sg9
(dp447
g11
I1000
ssg12
F6400
sg13
F6200
sg14
F0
sg15
F250
sbag2
(g3
g4
NtRp448
(dp449
g7
F5000
sg8
F4800
sg9
(dp450
g11
I1000
ssg12
F3800
sg13
F3600
sg14
F0
sg15
F250
sbag2
(g3
g4
NtRp451
(dp452
g7
F5000
sg8
F4800
sg9
(dp453
g11
I1000
ssg12
F4000
sg13
F3800
sg14
F0
sg15
F250
sbag2
(g3
g4
NtRp454
(dp455
g7
F5000
sg8
F4800
sg9
(dp456
g11
I1000
ssg12
F4200
sg13
F4000
sg14
F0
sg15
F250
sbag2
(g3
g4
NtRp457
(dp458
g7
F5000
sg8
F4800
sg9
(dp459
g11
I1000
ssg12
F4400
sg13
F4200
sg14
F0
sg15
F250
sbag2
(g3
g4
NtRp460
(dp461
g7
F5000
sg8
F4800
sg9
(dp462
g11
I1000
ssg12
F4600
sg13
F4400
sg14
F0
sg15
F250
sbag2
(g3
g4
NtRp463
(dp464
g7
F5000
sg8
F4800
sg9
(dp465
g11
I1000
ssg12
F4800
sg13
F4600
sg14
F0
sg15
F250
sbag2
(g3
g4
NtRp466
(dp467
g7
F5000
sg8
F4800
sg9
(dp468
g11
I1000
ssg12
F5000
sg13
F4800
sg14
F0
sg15
F250
sbag2
(g3
g4
NtRp469
(dp470
g7
F5000
sg8
F4800
sg9
(dp471
g11
I1000
ssg12
F5200
sg13
F5000
sg14
F0
sg15
F250
sbag2
(g3
g4
NtRp472
(dp473
g7
F5000
sg8
F4800
sg9
(dp474
g11
I1000
ssg12
F5400
sg13
F5200
sg14
F0
sg15
F250
sbag2
(g3
g4
NtRp475
(dp476
g7
F5000
sg8
F4800
sg9
(dp477
g11
I1000
ssg12
F5600
sg13
F5400
sg14
F0
sg15
F250
sbag2
(g3
g4
NtRp478
(dp479
g7
F5000
sg8
F4800
sg9
(dp480
g11
I1000
ssg12
F5800
sg13
F5600
sg14
F0
sg15
F250
sbag2
(g3
g4
NtRp481
(dp482
g7
F5000
sg8
F4800
sg9
(dp483
g11
I1000
ssg12
F6000
sg13
F5800
sg14
F0
sg15
F250
sbag2
(g3
g4
NtRp484
(dp485
g7
F5000
sg8
F4800
sg9
(dp486
g11
I1000
ssg12
F6200
sg13
F6000
sg14
F0
sg15
F250
sbag2
(g3
g4
NtRp487
(dp488
g7
F5000
sg8
F4800
sg9
(dp489
g11
I1000
ssg12
F6400
sg13
F6200
sg14
F0
sg15
F250
sbag2
(g3
g4
NtRp490
(dp491
g7
F5000
sg8
F4800
sg9
(dp492
g11
I1000
ssg12
F6600
sg13
F6400
sg14
F0
sg15
F250
sbag2
(g3
g4
NtRp493
(dp494
g7
F5200
sg8
F5000
sg9
(dp495
g11
I1000
ssg12
F4000
sg13
F3800
sg14
F0
sg15
F250
sbag2
(g3
g4
NtRp496
(dp497
g7
F5200
sg8
F5000
sg9
(dp498
g11
I1000
ssg12
F4200
sg13
F4000
sg14
F0
sg15
F250
sbag2
(g3
g4
NtRp499
(dp500
g7
F5200
sg8
F5000
sg9
(dp501
g11
I1000
ssg12
F4400
sg13
F4200
sg14
F0
sg15
F250
sbag2
(g3
g4
NtRp502
(dp503
g7
F5200
sg8
F5000
sg9
(dp504
g11
I1000
ssg12
F4600
sg13
F4400
sg14
F0
sg15
F250
sbag2
(g3
g4
NtRp505
(dp506
g7
F5200
sg8
F5000
sg9
(dp507
g11
I1000
ssg12
F4800
sg13
F4600
sg14
F0
sg15
F250
sbag2
(g3
g4
NtRp508
(dp509
g7
F5200
sg8
F5000
sg9
(dp510
g11
I1000
ssg12
F5000
sg13
F4800
sg14
F0
sg15
F250
sbag2
(g3
g4
NtRp511
(dp512
g7
F5200
sg8
F5000
sg9
(dp513
g11
I1000
ssg12
F5200
sg13
F5000
sg14
F0
sg15
F250
sbag2
(g3
g4
NtRp514
(dp515
g7
F5200
sg8
F5000
sg9
(dp516
g11
I1000
ssg12
F5400
sg13
F5200
sg14
F0
sg15
F250
sbag2
(g3
g4
NtRp517
(dp518
g7
F5200
sg8
F5000
sg9
(dp519
g11
I1000
ssg12
F5600
sg13
F5400
sg14
F0
sg15
F250
sbag2
(g3
g4
NtRp520
(dp521
g7
F5200
sg8
F5000
sg9
(dp522
g11
I1000
ssg12
F5800
sg13
F5600
sg14
F0
sg15
F250
sbag2
(g3
g4
NtRp523
(dp524
g7
F5200
sg8
F5000
sg9
(dp525
g11
I1000
ssg12
F6000
sg13
F5800
sg14
F0
sg15
F250
sbag2
(g3
g4
NtRp526
(dp527
g7
F5200
sg8
F5000
sg9
(dp528
g11
I1000
ssg12
F6200
sg13
F6000
sg14
F0
sg15
F250
sbag2
(g3
g4
NtRp529
(dp530
g7
F5200
sg8
F5000
sg9
(dp531
g11
I1000
ssg12
F6400
sg13
F6200
sg14
F0
sg15
F250
sbag2
(g3
g4
NtRp532
(dp533
g7
F5200
sg8
F5000
sg9
(dp534
g11
I1000
ssg12
F6600
sg13
F6400
sg14
F0
sg15
F250
sbag2
(g3
g4
NtRp535
(dp536
g7
F5400
sg8
F5200
sg9
(dp537
g11
I1000
ssg12
F4400
sg13
F4200
sg14
F0
sg15
F250
sbag2
(g3
g4
NtRp538
(dp539
g7
F5400
sg8
F5200
sg9
(dp540
g11
I1000
ssg12
F4600
sg13
F4400
sg14
F0
sg15
F250
sbag2
(g3
g4
NtRp541
(dp542
g7
F5400
sg8
F5200
sg9
(dp543
g11
I1000
ssg12
F4800
sg13
F4600
sg14
F0
sg15
F250
sbag2
(g3
g4
NtRp544
(dp545
g7
F5400
sg8
F5200
sg9
(dp546
g11
I1000
ssg12
F5000
sg13
F4800
sg14
F0
sg15
F250
sbag2
(g3
g4
NtRp547
(dp548
g7
F5400
sg8
F5200
sg9
(dp549
g11
I1000
ssg12
F5200
sg13
F5000
sg14
F0
sg15
F250
sbag2
(g3
g4
NtRp550
(dp551
g7
F5400
sg8
F5200
sg9
(dp552
g11
I1000
ssg12
F5400
sg13
F5200
sg14
F0
sg15
F250
sbag2
(g3
g4
NtRp553
(dp554
g7
F5400
sg8
F5200
sg9
(dp555
g11
I1000
ssg12
F5600
sg13
F5400
sg14
F0
sg15
F250
sbag2
(g3
g4
NtRp556
(dp557
g7
F5400
sg8
F5200
sg9
(dp558
g11
I1000
ssg12
F5800
sg13
F5600
sg14
F0
sg15
F250
sbag2
(g3
g4
NtRp559
(dp560
g7
F5400
sg8
F5200
sg9
(dp561
g11
I1000
ssg12
F6000
sg13
F5800
sg14
F0
sg15
F250
sbag2
(g3
g4
NtRp562
(dp563
g7
F5400
sg8
F5200
sg9
(dp564
g11
I1000
ssg12
F6200
sg13
F6000
sg14
F0
sg15
F250
sbag2
(g3
g4
NtRp565
(dp566
g7
F5400
sg8
F5200
sg9
(dp567
g11
I1000
ssg12
F6400
sg13
F6200
sg14
F0
sg15
F250
sbag2
(g3
g4
NtRp568
(dp569
g7
F5400
sg8
F5200
sg9
(dp570
g11
I1000
ssg12
F6600
sg13
F6400
sg14
F0
sg15
F250
sbag2
(g3
g4
NtRp571
(dp572
g7
F5400
sg8
F5200
sg9
(dp573
g11
I1000
ssg12
F6800
sg13
F6600
sg14
F0
sg15
F250
sbag2
(g3
g4
NtRp574
(dp575
g7
F5600
sg8
F5400
sg9
(dp576
g11
I1000
ssg12
F4400
sg13
F4200
sg14
F0
sg15
F250
sbag2
(g3
g4
NtRp577
(dp578
g7
F5600
sg8
F5400
sg9
(dp579
g11
I1000
ssg12
F4600
sg13
F4400
sg14
F0
sg15
F250
sbag2
(g3
g4
NtRp580
(dp581
g7
F5600
sg8
F5400
sg9
(dp582
g11
I1000
ssg12
F4800
sg13
F4600
sg14
F0
sg15
F250
sbag2
(g3
g4
NtRp583
(dp584
g7
F5600
sg8
F5400
sg9
(dp585
g11
I1000
ssg12
F5000
sg13
F4800
sg14
F0
sg15
F250
sbag2
(g3
g4
NtRp586
(dp587
g7
F5600
sg8
F5400
sg9
(dp588
g11
I1000
ssg12
F5200
sg13
F5000
sg14
F0
sg15
F250
sbag2
(g3
g4
NtRp589
(dp590
g7
F5600
sg8
F5400
sg9
(dp591
g11
I1000
ssg12
F5400
sg13
F5200
sg14
F0
sg15
F250
sbag2
(g3
g4
NtRp592
(dp593
g7
F5600
sg8
F5400
sg9
(dp594
g11
I1000
ssg12
F5600
sg13
F5400
sg14
F0
sg15
F250
sbag2
(g3
g4
NtRp595
(dp596
g7
F5600
sg8
F5400
sg9
(dp597
g11
I1000
ssg12
F5800
sg13
F5600
sg14
F0
sg15
F250
sbag2
(g3
g4
NtRp598
(dp599
g7
F5600
sg8
F5400
sg9
(dp600
g11
I1000
ssg12
F6000
sg13
F5800
sg14
F0
sg15
F250
sbag2
(g3
g4
NtRp601
(dp602
g7
F5600
sg8
F5400
sg9
(dp603
g11
I1000
ssg12
F6200
sg13
F6000
sg14
F0
sg15
F250
sbag2
(g3
g4
NtRp604
(dp605
g7
F5600
sg8
F5400
sg9
(dp606
g11
I1000
ssg12
F6400
sg13
F6200
sg14
F0
sg15
F250
sbag2
(g3
g4
NtRp607
(dp608
g7
F5600
sg8
F5400
sg9
(dp609
g11
I1000
ssg12
F6600
sg13
F6400
sg14
F0
sg15
F250
sbag2
(g3
g4
NtRp610
(dp611
g7
F5600
sg8
F5400
sg9
(dp612
g11
I1000
ssg12
F6800
sg13
F6600
sg14
F0
sg15
F250
sbag2
(g3
g4
NtRp613
(dp614
g7
F5800
sg8
F5600
sg9
(dp615
g11
I1000
ssg12
F4800
sg13
F4600
sg14
F0
sg15
F250
sbag2
(g3
g4
NtRp616
(dp617
g7
F5800
sg8
F5600
sg9
(dp618
g11
I1000
ssg12
F5000
sg13
F4800
sg14
F0
sg15
F250
sbag2
(g3
g4
NtRp619
(dp620
g7
F5800
sg8
F5600
sg9
(dp621
g11
I1000
ssg12
F5200
sg13
F5000
sg14
F0
sg15
F250
sbag2
(g3
g4
NtRp622
(dp623
g7
F5800
sg8
F5600
sg9
(dp624
g11
I1000
ssg12
F5400
sg13
F5200
sg14
F0
sg15
F250
sbag2
(g3
g4
NtRp625
(dp626
g7
F5800
sg8
F5600
sg9
(dp627
g11
I1000
ssg12
F5600
sg13
F5400
sg14
F0
sg15
F250
sbag2
(g3
g4
NtRp628
(dp629
g7
F5800
sg8
F5600
sg9
(dp630
g11
I1000
ssg12
F5800
sg13
F5600
sg14
F0
sg15
F250
sbag2
(g3
g4
NtRp631
(dp632
g7
F5800
sg8
F5600
sg9
(dp633
g11
I1000
ssg12
F6000
sg13
F5800
sg14
F0
sg15
F250
sbag2
(g3
g4
NtRp634
(dp635
g7
F5800
sg8
F5600
sg9
(dp636
g11
I1000
ssg12
F6200
sg13
F6000
sg14
F0
sg15
F250
sbag2
(g3
g4
NtRp637
(dp638
g7
F5800
sg8
F5600
sg9
(dp639
g11
I1000
ssg12
F6400
sg13
F6200
sg14
F0
sg15
F250
sbag2
(g3
g4
NtRp640
(dp641
g7
F5800
sg8
F5600
sg9
(dp642
g11
I1000
ssg12
F6600
sg13
F6400
sg14
F0
sg15
F250
sbag2
(g3
g4
NtRp643
(dp644
g7
F5800
sg8
F5600
sg9
(dp645
g11
I1000
ssg12
F6800
sg13
F6600
sg14
F0
sg15
F250
sbag2
(g3
g4
NtRp646
(dp647
g7
F6000
sg8
F5800
sg9
(dp648
g11
I1000
ssg12
F5000
sg13
F4800
sg14
F0
sg15
F250
sbag2
(g3
g4
NtRp649
(dp650
g7
F6000
sg8
F5800
sg9
(dp651
g11
I1000
ssg12
F5200
sg13
F5000
sg14
F0
sg15
F250
sbag2
(g3
g4
NtRp652
(dp653
g7
F6000
sg8
F5800
sg9
(dp654
g11
I1000
ssg12
F5400
sg13
F5200
sg14
F0
sg15
F250
sbag2
(g3
g4
NtRp655
(dp656
g7
F6000
sg8
F5800
sg9
(dp657
g11
I1000
ssg12
F5600
sg13
F5400
sg14
F0
sg15
F250
sbag2
(g3
g4
NtRp658
(dp659
g7
F6000
sg8
F5800
sg9
(dp660
g11
I1000
ssg12
F5800
sg13
F5600
sg14
F0
sg15
F250
sbag2
(g3
g4
NtRp661
(dp662
g7
F6000
sg8
F5800
sg9
(dp663
g11
I1000
ssg12
F6000
sg13
F5800
sg14
F0
sg15
F250
sbag2
(g3
g4
NtRp664
(dp665
g7
F6000
sg8
F5800
sg9
(dp666
g11
I1000
ssg12
F6200
sg13
F6000
sg14
F0
sg15
F250
sbag2
(g3
g4
NtRp667
(dp668
g7
F6000
sg8
F5800
sg9
(dp669
g11
I1000
ssg12
F6400
sg13
F6200
sg14
F0
sg15
F250
sbag2
(g3
g4
NtRp670
(dp671
g7
F6000
sg8
F5800
sg9
(dp672
g11
I1000
ssg12
F6600
sg13
F6400
sg14
F0
sg15
F250
sbag2
(g3
g4
NtRp673
(dp674
g7
F6000
sg8
F5800
sg9
(dp675
g11
I1000
ssg12
F6800
sg13
F6600
sg14
F0
sg15
F250
sbag2
(g3
g4
NtRp676
(dp677
g7
F6200
sg8
F6000
sg9
(dp678
g11
I1000
ssg12
F5200
sg13
F5000
sg14
F0
sg15
F250
sbag2
(g3
g4
NtRp679
(dp680
g7
F6200
sg8
F6000
sg9
(dp681
g11
I1000
ssg12
F5400
sg13
F5200
sg14
F0
sg15
F250
sbag2
(g3
g4
NtRp682
(dp683
g7
F6200
sg8
F6000
sg9
(dp684
g11
I1000
ssg12
F5600
sg13
F5400
sg14
F0
sg15
F250
sbag2
(g3
g4
NtRp685
(dp686
g7
F6200
sg8
F6000
sg9
(dp687
g11
I1000
ssg12
F5800
sg13
F5600
sg14
F0
sg15
F250
sbag2
(g3
g4
NtRp688
(dp689
g7
F6200
sg8
F6000
sg9
(dp690
g11
I1000
ssg12
F6000
sg13
F5800
sg14
F0
sg15
F250
sbag2
(g3
g4
NtRp691
(dp692
g7
F6200
sg8
F6000
sg9
(dp693
g11
I1000
ssg12
F6200
sg13
F6000
sg14
F0
sg15
F250
sbag2
(g3
g4
NtRp694
(dp695
g7
F6200
sg8
F6000
sg9
(dp696
g11
I1000
ssg12
F6400
sg13
F6200
sg14
F0
sg15
F250
sbag2
(g3
g4
NtRp697
(dp698
g7
F6200
sg8
F6000
sg9
(dp699
g11
I1000
ssg12
F6600
sg13
F6400
sg14
F0
sg15
F250
sbag2
(g3
g4
NtRp700
(dp701
g7
F6200
sg8
F6000
sg9
(dp702
g11
I1000
ssg12
F6800
sg13
F6600
sg14
F0
sg15
F250
sbag2
(g3
g4
NtRp703
(dp704
g7
F6200
sg8
F6000
sg9
(dp705
g11
I1000
ssg12
F7000
sg13
F6800
sg14
F0
sg15
F250
sbag2
(g3
g4
NtRp706
(dp707
g7
F6400
sg8
F6200
sg9
(dp708
g11
I1000
ssg12
F5400
sg13
F5200
sg14
F0
sg15
F250
sbag2
(g3
g4
NtRp709
(dp710
g7
F6400
sg8
F6200
sg9
(dp711
g11
I1000
ssg12
F5600
sg13
F5400
sg14
F0
sg15
F250
sbag2
(g3
g4
NtRp712
(dp713
g7
F6400
sg8
F6200
sg9
(dp714
g11
I1000
ssg12
F5800
sg13
F5600
sg14
F0
sg15
F250
sbag2
(g3
g4
NtRp715
(dp716
g7
F6400
sg8
F6200
sg9
(dp717
g11
I1000
ssg12
F6000
sg13
F5800
sg14
F0
sg15
F250
sbag2
(g3
g4
NtRp718
(dp719
g7
F6400
sg8
F6200
sg9
(dp720
g11
I1000
ssg12
F6200
sg13
F6000
sg14
F0
sg15
F250
sbag2
(g3
g4
NtRp721
(dp722
g7
F6400
sg8
F6200
sg9
(dp723
g11
I1000
ssg12
F6400
sg13
F6200
sg14
F0
sg15
F250
sbag2
(g3
g4
NtRp724
(dp725
g7
F6400
sg8
F6200
sg9
(dp726
g11
I1000
ssg12
F6600
sg13
F6400
sg14
F0
sg15
F250
sbag2
(g3
g4
NtRp727
(dp728
g7
F6400
sg8
F6200
sg9
(dp729
g11
I1000
ssg12
F6800
sg13
F6600
sg14
F0
sg15
F250
sbag2
(g3
g4
NtRp730
(dp731
g7
F6400
sg8
F6200
sg9
(dp732
g11
I1000
ssg12
F7000
sg13
F6800
sg14
F0
sg15
F250
sbag2
(g3
g4
NtRp733
(dp734
g7
F6400
sg8
F6200
sg9
(dp735
g11
I1000
ssg12
F7200
sg13
F7000
sg14
F0
sg15
F250
sbag2
(g3
g4
NtRp736
(dp737
g7
F6600
sg8
F6400
sg9
(dp738
g11
I1000
ssg12
F6600
sg13
F6400
sg14
F0
sg15
F250
sbag2
(g3
g4
NtRp739
(dp740
g7
F6600
sg8
F6400
sg9
(dp741
g11
I1000
ssg12
F6800
sg13
F6600
sg14
F0
sg15
F250
sbag2
(g3
g4
NtRp742
(dp743
g7
F6600
sg8
F6400
sg9
(dp744
g11
I1000
ssg12
F7000
sg13
F6800
sg14
F0
sg15
F250
sbag2
(g3
g4
NtRp745
(dp746
g7
F6600
sg8
F6400
sg9
(dp747
g11
I1000
ssg12
F7200
sg13
F7000
sg14
F0
sg15
F250
sbag2
(g3
g4
NtRp748
(dp749
g7
F6600
sg8
F6400
sg9
(dp750
g11
I1000
ssg12
F7400
sg13
F7200
sg14
F0
sg15
F250
sbag2
(g3
g4
NtRp751
(dp752
g7
F6800
sg8
F6600
sg9
(dp753
g11
I1000
ssg12
F6800
sg13
F6600
sg14
F0
sg15
F250
sbag2
(g3
g4
NtRp754
(dp755
g7
F6800
sg8
F6600
sg9
(dp756
g11
I1000
ssg12
F7000
sg13
F6800
sg14
F0
sg15
F250
sbag2
(g3
g4
NtRp757
(dp758
g7
F6800
sg8
F6600
sg9
(dp759
g11
I1000
ssg12
F7200
sg13
F7000
sg14
F0
sg15
F250
sbag2
(g3
g4
NtRp760
(dp761
g7
F6800
sg8
F6600
sg9
(dp762
g11
I1000
ssg12
F7400
sg13
F7200
sg14
F0
sg15
F250
sbag2
(g3
g4
NtRp763
(dp764
g7
F6800
sg8
F6600
sg9
(dp765
g11
I1000
ssg12
F7600
sg13
F7400
sg14
F0
sg15
F250
sbag2
(g3
g4
NtRp766
(dp767
g7
F7000
sg8
F6800
sg9
(dp768
g11
I1000
ssg12
F7200
sg13
F7000
sg14
F0
sg15
F250
sbag2
(g3
g4
NtRp769
(dp770
g7
F7000
sg8
F6800
sg9
(dp771
g11
I1000
ssg12
F7400
sg13
F7200
sg14
F0
sg15
F250
sbag2
(g3
g4
NtRp772
(dp773
g7
F7000
sg8
F6800
sg9
(dp774
g11
I1000
ssg12
F7600
sg13
F7400
sg14
F0
sg15
F250
sbag2
(g3
g4
NtRp775
(dp776
g7
F2400
sg8
F2200
sg9
(dp777
g11
I1000
ssg12
F3600
sg13
F3400
sg14
F250
sg15
F500
sbag2
(g3
g4
NtRp778
(dp779
g7
F2400
sg8
F2200
sg9
(dp780
g11
I1000
ssg12
F3800
sg13
F3600
sg14
F250
sg15
F500
sbag2
(g3
g4
NtRp781
(dp782
g7
F2400
sg8
F2200
sg9
(dp783
g11
I1000
ssg12
F4000
sg13
F3800
sg14
F250
sg15
F500
sbag2
(g3
g4
NtRp784
(dp785
g7
F2600
sg8
F2400
sg9
(dp786
g11
I1000
ssg12
F3200
sg13
F3000
sg14
F250
sg15
F500
sbag2
(g3
g4
NtRp787
(dp788
g7
F2600
sg8
F2400
sg9
(dp789
g11
I1000
ssg12
F3400
sg13
F3200
sg14
F250
sg15
F500
sbag2
(g3
g4
NtRp790
(dp791
g7
F2600
sg8
F2400
sg9
(dp792
g11
I1000
ssg12
F3600
sg13
F3400
sg14
F250
sg15
F500
sbag2
(g3
g4
NtRp793
(dp794
g7
F2600
sg8
F2400
sg9
(dp795
g11
I1000
ssg12
F3800
sg13
F3600
sg14
F250
sg15
F500
sbag2
(g3
g4
NtRp796
(dp797
g7
F2600
sg8
F2400
sg9
(dp798
g11
I1000
ssg12
F4000
sg13
F3800
sg14
F250
sg15
F500
sbag2
(g3
g4
NtRp799
(dp800
g7
F2600
sg8
F2400
sg9
(dp801
g11
I1000
ssg12
F4200
sg13
F4000
sg14
F250
sg15
F500
sbag2
(g3
g4
NtRp802
(dp803
g7
F2800
sg8
F2600
sg9
(dp804
g11
I1000
ssg12
F3200
sg13
F3000
sg14
F250
sg15
F500
sbag2
(g3
g4
NtRp805
(dp806
g7
F2800
sg8
F2600
sg9
(dp807
g11
I1000
ssg12
F3400
sg13
F3200
sg14
F250
sg15
F500
sbag2
(g3
g4
NtRp808
(dp809
g7
F2800
sg8
F2600
sg9
(dp810
g11
I1000
ssg12
F3600
sg13
F3400
sg14
F250
sg15
F500
sbag2
(g3
g4
NtRp811
(dp812
g7
F2800
sg8
F2600
sg9
(dp813
g11
I1000
ssg12
F3800
sg13
F3600
sg14
F250
sg15
F500
sbag2
(g3
g4
NtRp814
(dp815
g7
F2800
sg8
F2600
sg9
(dp816
g11
I1000
ssg12
F4000
sg13
F3800
sg14
F250
sg15
F500
sbag2
(g3
g4
NtRp817
(dp818
g7
F2800
sg8
F2600
sg9
(dp819
g11
I1000
ssg12
F4200
sg13
F4000
sg14
F250
sg15
F500
sbag2
(g3
g4
NtRp820
(dp821
g7
F2800
sg8
F2600
sg9
(dp822
g11
I1000
ssg12
F4400
sg13
F4200
sg14
F250
sg15
F500
sbag2
(g3
g4
NtRp823
(dp824
g7
F2800
sg8
F2600
sg9
(dp825
g11
I1000
ssg12
F4600
sg13
F4400
sg14
F250
sg15
F500
sbag2
(g3
g4
NtRp826
(dp827
g7
F3000
sg8
F2800
sg9
(dp828
g11
I1000
ssg12
F2800
sg13
F2600
sg14
F250
sg15
F500
sbag2
(g3
g4
NtRp829
(dp830
g7
F3000
sg8
F2800
sg9
(dp831
g11
I1000
ssg12
F3000
sg13
F2800
sg14
F250
sg15
F500
sbag2
(g3
g4
NtRp832
(dp833
g7
F3000
sg8
F2800
sg9
(dp834
g11
I1000
ssg12
F3200
sg13
F3000
sg14
F250
sg15
F500
sbag2
(g3
g4
NtRp835
(dp836
g7
F3000
sg8
F2800
sg9
(dp837
g11
I1000
ssg12
F3400
sg13
F3200
sg14
F250
sg15
F500
sbag2
(g3
g4
NtRp838
(dp839
g7
F3000
sg8
F2800
sg9
(dp840
g11
I1000
ssg12
F3600
sg13
F3400
sg14
F250
sg15
F500
sbag2
(g3
g4
NtRp841
(dp842
g7
F3000
sg8
F2800
sg9
(dp843
g11
I1000
ssg12
F3800
sg13
F3600
sg14
F250
sg15
F500
sbag2
(g3
g4
NtRp844
(dp845
g7
F3000
sg8
F2800
sg9
(dp846
g11
I1000
ssg12
F4000
sg13
F3800
sg14
F250
sg15
F500
sbag2
(g3
g4
NtRp847
(dp848
g7
F3000
sg8
F2800
sg9
(dp849
g11
I1000
ssg12
F4200
sg13
F4000
sg14
F250
sg15
F500
sbag2
(g3
g4
NtRp850
(dp851
g7
F3000
sg8
F2800
sg9
(dp852
g11
I1000
ssg12
F4400
sg13
F4200
sg14
F250
sg15
F500
sbag2
(g3
g4
NtRp853
(dp854
g7
F3000
sg8
F2800
sg9
(dp855
g11
I1000
ssg12
F4600
sg13
F4400
sg14
F250
sg15
F500
sbag2
(g3
g4
NtRp856
(dp857
g7
F3200
sg8
F3000
sg9
(dp858
g11
I1000
ssg12
F2600
sg13
F2400
sg14
F250
sg15
F500
sbag2
(g3
g4
NtRp859
(dp860
g7
F3200
sg8
F3000
sg9
(dp861
g11
I1000
ssg12
F2800
sg13
F2600
sg14
F250
sg15
F500
sbag2
(g3
g4
NtRp862
(dp863
g7
F3200
sg8
F3000
sg9
(dp864
g11
I1000
ssg12
F3000
sg13
F2800
sg14
F250
sg15
F500
sbag2
(g3
g4
NtRp865
(dp866
g7
F3200
sg8
F3000
sg9
(dp867
g11
I1000
ssg12
F3200
sg13
F3000
sg14
F250
sg15
F500
sbag2
(g3
g4
NtRp868
(dp869
g7
F3200
sg8
F3000
sg9
(dp870
g11
I1000
ssg12
F3400
sg13
F3200
sg14
F250
sg15
F500
sbag2
(g3
g4
NtRp871
(dp872
g7
F3200
sg8
F3000
sg9
(dp873
g11
I1000
ssg12
F3600
sg13
F3400
sg14
F250
sg15
F500
sbag2
(g3
g4
NtRp874
(dp875
g7
F3200
sg8
F3000
sg9
(dp876
g11
I1000
ssg12
F3800
sg13
F3600
sg14
F250
sg15
F500
sbag2
(g3
g4
NtRp877
(dp878
g7
F3200
sg8
F3000
sg9
(dp879
g11
I1000
ssg12
F4000
sg13
F3800
sg14
F250
sg15
F500
sbag2
(g3
g4
NtRp880
(dp881
g7
F3200
sg8
F3000
sg9
(dp882
g11
I1000
ssg12
F4200
sg13
F4000
sg14
F250
sg15
F500
sbag2
(g3
g4
NtRp883
(dp884
g7
F3200
sg8
F3000
sg9
(dp885
g11
I1000
ssg12
F4400
sg13
F4200
sg14
F250
sg15
F500
sbag2
(g3
g4
NtRp886
(dp887
g7
F3200
sg8
F3000
sg9
(dp888
g11
I1000
ssg12
F4600
sg13
F4400
sg14
F250
sg15
F500
sbag2
(g3
g4
NtRp889
(dp890
g7
F3200
sg8
F3000
sg9
(dp891
g11
I1000
ssg12
F4800
sg13
F4600
sg14
F250
sg15
F500
sbag2
(g3
g4
NtRp892
(dp893
g7
F3400
sg8
F3200
sg9
(dp894
g11
I1000
ssg12
F2200
sg13
F2000
sg14
F250
sg15
F500
sbag2
(g3
g4
NtRp895
(dp896
g7
F3400
sg8
F3200
sg9
(dp897
g11
I1000
ssg12
F2400
sg13
F2200
sg14
F250
sg15
F500
sbag2
(g3
g4
NtRp898
(dp899
g7
F3400
sg8
F3200
sg9
(dp900
g11
I1000
ssg12
F2600
sg13
F2400
sg14
F250
sg15
F500
sbag2
(g3
g4
NtRp901
(dp902
g7
F3400
sg8
F3200
sg9
(dp903
g11
I1000
ssg12
F2800
sg13
F2600
sg14
F250
sg15
F500
sbag2
(g3
g4
NtRp904
(dp905
g7
F3400
sg8
F3200
sg9
(dp906
g11
I1000
ssg12
F3000
sg13
F2800
sg14
F250
sg15
F500
sbag2
(g3
g4
NtRp907
(dp908
g7
F3400
sg8
F3200
sg9
(dp909
g11
I1000
ssg12
F3200
sg13
F3000
sg14
F250
sg15
F500
sbag2
(g3
g4
NtRp910
(dp911
g7
F3400
sg8
F3200
sg9
(dp912
g11
I1000
ssg12
F3400
sg13
F3200
sg14
F250
sg15
F500
sbag2
(g3
g4
NtRp913
(dp914
g7
F3400
sg8
F3200
sg9
(dp915
g11
I1000
ssg12
F3600
sg13
F3400
sg14
F250
sg15
F500
sbag2
(g3
g4
NtRp916
(dp917
g7
F3400
sg8
F3200
sg9
(dp918
g11
I1000
ssg12
F3800
sg13
F3600
sg14
F250
sg15
F500
sbag2
(g3
g4
NtRp919
(dp920
g7
F3400
sg8
F3200
sg9
(dp921
g11
I1000
ssg12
F4000
sg13
F3800
sg14
F250
sg15
F500
sbag2
(g3
g4
NtRp922
(dp923
g7
F3400
sg8
F3200
sg9
(dp924
g11
I1000
ssg12
F4200
sg13
F4000
sg14
F250
sg15
F500
sbag2
(g3
g4
NtRp925
(dp926
g7
F3400
sg8
F3200
sg9
(dp927
g11
I1000
ssg12
F4400
sg13
F4200
sg14
F250
sg15
F500
sbag2
(g3
g4
NtRp928
(dp929
g7
F3400
sg8
F3200
sg9
(dp930
g11
I1000
ssg12
F4600
sg13
F4400
sg14
F250
sg15
F500
sbag2
(g3
g4
NtRp931
(dp932
g7
F3400
sg8
F3200
sg9
(dp933
g11
I1000
ssg12
F4800
sg13
F4600
sg14
F250
sg15
F500
sbag2
(g3
g4
NtRp934
(dp935
g7
F3400
sg8
F3200
sg9
(dp936
g11
I1000
ssg12
F5000
sg13
F4800
sg14
F250
sg15
F500
sbag2
(g3
g4
NtRp937
(dp938
g7
F3600
sg8
F3400
sg9
(dp939
g11
I1000
ssg12
F2200
sg13
F2000
sg14
F250
sg15
F500
sbag2
(g3
g4
NtRp940
(dp941
g7
F3600
sg8
F3400
sg9
(dp942
g11
I1000
ssg12
F2400
sg13
F2200
sg14
F250
sg15
F500
sbag2
(g3
g4
NtRp943
(dp944
g7
F3600
sg8
F3400
sg9
(dp945
g11
I1000
ssg12
F2600
sg13
F2400
sg14
F250
sg15
F500
sbag2
(g3
g4
NtRp946
(dp947
g7
F3600
sg8
F3400
sg9
(dp948
g11
I1000
ssg12
F2800
sg13
F2600
sg14
F250
sg15
F500
sbag2
(g3
g4
NtRp949
(dp950
g7
F3600
sg8
F3400
sg9
(dp951
g11
I1000
ssg12
F3000
sg13
F2800
sg14
F250
sg15
F500
sbag2
(g3
g4
NtRp952
(dp953
g7
F3600
sg8
F3400
sg9
(dp954
g11
I1000
ssg12
F3200
sg13
F3000
sg14
F250
sg15
F500
sbag2
(g3
g4
NtRp955
(dp956
g7
F3600
sg8
F3400
sg9
(dp957
g11
I1000
ssg12
F3400
sg13
F3200
sg14
F250
sg15
F500
sbag2
(g3
g4
NtRp958
(dp959
g7
F3600
sg8
F3400
sg9
(dp960
g11
I1000
ssg12
F3600
sg13
F3400
sg14
F250
sg15
F500
sbag2
(g3
g4
NtRp961
(dp962
g7
F3600
sg8
F3400
sg9
(dp963
g11
I1000
ssg12
F3800
sg13
F3600
sg14
F250
sg15
F500
sbag2
(g3
g4
NtRp964
(dp965
g7
F3600
sg8
F3400
sg9
(dp966
g11
I1000
ssg12
F4000
sg13
F3800
sg14
F250
sg15
F500
sbag2
(g3
g4
NtRp967
(dp968
g7
F3600
sg8
F3400
sg9
(dp969
g11
I1000
ssg12
F4200
sg13
F4000
sg14
F250
sg15
F500
sbag2
(g3
g4
NtRp970
(dp971
g7
F3600
sg8
F3400
sg9
(dp972
g11
I1000
ssg12
F4400
sg13
F4200
sg14
F250
sg15
F500
sbag2
(g3
g4
NtRp973
(dp974
g7
F3600
sg8
F3400
sg9
(dp975
g11
I1000
ssg12
F4600
sg13
F4400
sg14
F250
sg15
F500
sbag2
(g3
g4
NtRp976
(dp977
g7
F3600
sg8
F3400
sg9
(dp978
g11
I1000
ssg12
F4800
sg13
F4600
sg14
F250
sg15
F500
sbag2
(g3
g4
NtRp979
(dp980
g7
F3600
sg8
F3400
sg9
(dp981
g11
I1000
ssg12
F5000
sg13
F4800
sg14
F250
sg15
F500
sbag2
(g3
g4
NtRp982
(dp983
g7
F3600
sg8
F3400
sg9
(dp984
g11
I1000
ssg12
F5200
sg13
F5000
sg14
F250
sg15
F500
sbag2
(g3
g4
NtRp985
(dp986
g7
F3800
sg8
F3600
sg9
(dp987
g11
I1000
ssg12
F2400
sg13
F2200
sg14
F250
sg15
F500
sbag2
(g3
g4
NtRp988
(dp989
g7
F3800
sg8
F3600
sg9
(dp990
g11
I1000
ssg12
F2600
sg13
F2400
sg14
F250
sg15
F500
sbag2
(g3
g4
NtRp991
(dp992
g7
F3800
sg8
F3600
sg9
(dp993
g11
I1000
ssg12
F2800
sg13
F2600
sg14
F250
sg15
F500
sbag2
(g3
g4
NtRp994
(dp995
g7
F3800
sg8
F3600
sg9
(dp996
g11
I1000
ssg12
F3000
sg13
F2800
sg14
F250
sg15
F500
sbag2
(g3
g4
NtRp997
(dp998
g7
F3800
sg8
F3600
sg9
(dp999
g11
I1000
ssg12
F3200
sg13
F3000
sg14
F250
sg15
F500
sbag2
(g3
g4
NtRp1000
(dp1001
g7
F3800
sg8
F3600
sg9
(dp1002
g11
I1000
ssg12
F3400
sg13
F3200
sg14
F250
sg15
F500
sbag2
(g3
g4
NtRp1003
(dp1004
g7
F3800
sg8
F3600
sg9
(dp1005
g11
I1000
ssg12
F3600
sg13
F3400
sg14
F250
sg15
F500
sbag2
(g3
g4
NtRp1006
(dp1007
g7
F3800
sg8
F3600
sg9
(dp1008
g11
I1000
ssg12
F3800
sg13
F3600
sg14
F250
sg15
F500
sbag2
(g3
g4
NtRp1009
(dp1010
g7
F3800
sg8
F3600
sg9
(dp1011
g11
I1000
ssg12
F4000
sg13
F3800
sg14
F250
sg15
F500
sbag2
(g3
g4
NtRp1012
(dp1013
g7
F3800
sg8
F3600
sg9
(dp1014
g11
I1000
ssg12
F4200
sg13
F4000
sg14
F250
sg15
F500
sbag2
(g3
g4
NtRp1015
(dp1016
g7
F3800
sg8
F3600
sg9
(dp1017
g11
I1000
ssg12
F4400
sg13
F4200
sg14
F250
sg15
F500
sbag2
(g3
g4
NtRp1018
(dp1019
g7
F3800
sg8
F3600
sg9
(dp1020
g11
I1000
ssg12
F4600
sg13
F4400
sg14
F250
sg15
F500
sbag2
(g3
g4
NtRp1021
(dp1022
g7
F3800
sg8
F3600
sg9
(dp1023
g11
I1000
ssg12
F4800
sg13
F4600
sg14
F250
sg15
F500
sbag2
(g3
g4
NtRp1024
(dp1025
g7
F3800
sg8
F3600
sg9
(dp1026
g11
I1000
ssg12
F5000
sg13
F4800
sg14
F250
sg15
F500
sbag2
(g3
g4
NtRp1027
(dp1028
g7
F3800
sg8
F3600
sg9
(dp1029
g11
I1000
ssg12
F5200
sg13
F5000
sg14
F250
sg15
F500
sbag2
(g3
g4
NtRp1030
(dp1031
g7
F4000
sg8
F3800
sg9
(dp1032
g11
I1000
ssg12
F2600
sg13
F2400
sg14
F250
sg15
F500
sbag2
(g3
g4
NtRp1033
(dp1034
g7
F4000
sg8
F3800
sg9
(dp1035
g11
I1000
ssg12
F2800
sg13
F2600
sg14
F250
sg15
F500
sbag2
(g3
g4
NtRp1036
(dp1037
g7
F4000
sg8
F3800
sg9
(dp1038
g11
I1000
ssg12
F3000
sg13
F2800
sg14
F250
sg15
F500
sbag2
(g3
g4
NtRp1039
(dp1040
g7
F4000
sg8
F3800
sg9
(dp1041
g11
I1000
ssg12
F3200
sg13
F3000
sg14
F250
sg15
F500
sbag2
(g3
g4
NtRp1042
(dp1043
g7
F4000
sg8
F3800
sg9
(dp1044
g11
I1000
ssg12
F3400
sg13
F3200
sg14
F250
sg15
F500
sbag2
(g3
g4
NtRp1045
(dp1046
g7
F4000
sg8
F3800
sg9
(dp1047
g11
I1000
ssg12
F3600
sg13
F3400
sg14
F250
sg15
F500
sbag2
(g3
g4
NtRp1048
(dp1049
g7
F4000
sg8
F3800
sg9
(dp1050
g11
I1000
ssg12
F3800
sg13
F3600
sg14
F250
sg15
F500
sbag2
(g3
g4
NtRp1051
(dp1052
g7
F4000
sg8
F3800
sg9
(dp1053
g11
I1000
ssg12
F4000
sg13
F3800
sg14
F250
sg15
F500
sbag2
(g3
g4
NtRp1054
(dp1055
g7
F4000
sg8
F3800
sg9
(dp1056
g11
I1000
ssg12
F4200
sg13
F4000
sg14
F250
sg15
F500
sbag2
(g3
g4
NtRp1057
(dp1058
g7
F4000
sg8
F3800
sg9
(dp1059
g11
I1000
ssg12
F4400
sg13
F4200
sg14
F250
sg15
F500
sbag2
(g3
g4
NtRp1060
(dp1061
g7
F4000
sg8
F3800
sg9
(dp1062
g11
I1000
ssg12
F4600
sg13
F4400
sg14
F250
sg15
F500
sbag2
(g3
g4
NtRp1063
(dp1064
g7
F4000
sg8
F3800
sg9
(dp1065
g11
I1000
ssg12
F4800
sg13
F4600
sg14
F250
sg15
F500
sbag2
(g3
g4
NtRp1066
(dp1067
g7
F4000
sg8
F3800
sg9
(dp1068
g11
I1000
ssg12
F5000
sg13
F4800
sg14
F250
sg15
F500
sbag2
(g3
g4
NtRp1069
(dp1070
g7
F4000
sg8
F3800
sg9
(dp1071
g11
I1000
ssg12
F5200
sg13
F5000
sg14
F250
sg15
F500
sbag2
(g3
g4
NtRp1072
(dp1073
g7
F4000
sg8
F3800
sg9
(dp1074
g11
I1000
ssg12
F5400
sg13
F5200
sg14
F250
sg15
F500
sbag2
(g3
g4
NtRp1075
(dp1076
g7
F4000
sg8
F3800
sg9
(dp1077
g11
I1000
ssg12
F5600
sg13
F5400
sg14
F250
sg15
F500
sbag2
(g3
g4
NtRp1078
(dp1079
g7
F4200
sg8
F4000
sg9
(dp1080
g11
I1000
ssg12
F2600
sg13
F2400
sg14
F250
sg15
F500
sbag2
(g3
g4
NtRp1081
(dp1082
g7
F4200
sg8
F4000
sg9
(dp1083
g11
I1000
ssg12
F2800
sg13
F2600
sg14
F250
sg15
F500
sbag2
(g3
g4
NtRp1084
(dp1085
g7
F4200
sg8
F4000
sg9
(dp1086
g11
I1000
ssg12
F3000
sg13
F2800
sg14
F250
sg15
F500
sbag2
(g3
g4
NtRp1087
(dp1088
g7
F4200
sg8
F4000
sg9
(dp1089
g11
I1000
ssg12
F3200
sg13
F3000
sg14
F250
sg15
F500
sbag2
(g3
g4
NtRp1090
(dp1091
g7
F4200
sg8
F4000
sg9
(dp1092
g11
I1000
ssg12
F3400
sg13
F3200
sg14
F250
sg15
F500
sbag2
(g3
g4
NtRp1093
(dp1094
g7
F4200
sg8
F4000
sg9
(dp1095
g11
I1000
ssg12
F3600
sg13
F3400
sg14
F250
sg15
F500
sbag2
(g3
g4
NtRp1096
(dp1097
g7
F4200
sg8
F4000
sg9
(dp1098
g11
I1000
ssg12
F3800
sg13
F3600
sg14
F250
sg15
F500
sbag2
(g3
g4
NtRp1099
(dp1100
g7
F4200
sg8
F4000
sg9
(dp1101
g11
I1000
ssg12
F4000
sg13
F3800
sg14
F250
sg15
F500
sbag2
(g3
g4
NtRp1102
(dp1103
g7
F4200
sg8
F4000
sg9
(dp1104
g11
I1000
ssg12
F4200
sg13
F4000
sg14
F250
sg15
F500
sbag2
(g3
g4
NtRp1105
(dp1106
g7
F4200
sg8
F4000
sg9
(dp1107
g11
I1000
ssg12
F4400
sg13
F4200
sg14
F250
sg15
F500
sbag2
(g3
g4
NtRp1108
(dp1109
g7
F4200
sg8
F4000
sg9
(dp1110
g11
I1000
ssg12
F4600
sg13
F4400
sg14
F250
sg15
F500
sbag2
(g3
g4
NtRp1111
(dp1112
g7
F4200
sg8
F4000
sg9
(dp1113
g11
I1000
ssg12
F4800
sg13
F4600
sg14
F250
sg15
F500
sbag2
(g3
g4
NtRp1114
(dp1115
g7
F4200
sg8
F4000
sg9
(dp1116
g11
I1000
ssg12
F5000
sg13
F4800
sg14
F250
sg15
F500
sbag2
(g3
g4
NtRp1117
(dp1118
g7
F4200
sg8
F4000
sg9
(dp1119
g11
I1000
ssg12
F5200
sg13
F5000
sg14
F250
sg15
F500
sbag2
(g3
g4
NtRp1120
(dp1121
g7
F4200
sg8
F4000
sg9
(dp1122
g11
I1000
ssg12
F5400
sg13
F5200
sg14
F250
sg15
F500
sbag2
(g3
g4
NtRp1123
(dp1124
g7
F4200
sg8
F4000
sg9
(dp1125
g11
I1000
ssg12
F5600
sg13
F5400
sg14
F250
sg15
F500
sbag2
(g3
g4
NtRp1126
(dp1127
g7
F4200
sg8
F4000
sg9
(dp1128
g11
I1000
ssg12
F5800
sg13
F5600
sg14
F250
sg15
F500
sbag2
(g3
g4
NtRp1129
(dp1130
g7
F4400
sg8
F4200
sg9
(dp1131
g11
I1000
ssg12
F3000
sg13
F2800
sg14
F250
sg15
F500
sbag2
(g3
g4
NtRp1132
(dp1133
g7
F4400
sg8
F4200
sg9
(dp1134
g11
I1000
ssg12
F3200
sg13
F3000
sg14
F250
sg15
F500
sbag2
(g3
g4
NtRp1135
(dp1136
g7
F4400
sg8
F4200
sg9
(dp1137
g11
I1000
ssg12
F3400
sg13
F3200
sg14
F250
sg15
F500
sbag2
(g3
g4
NtRp1138
(dp1139
g7
F4400
sg8
F4200
sg9
(dp1140
g11
I1000
ssg12
F3600
sg13
F3400
sg14
F250
sg15
F500
sbag2
(g3
g4
NtRp1141
(dp1142
g7
F4400
sg8
F4200
sg9
(dp1143
g11
I1000
ssg12
F3800
sg13
F3600
sg14
F250
sg15
F500
sbag2
(g3
g4
NtRp1144
(dp1145
g7
F4400
sg8
F4200
sg9
(dp1146
g11
I1000
ssg12
F4000
sg13
F3800
sg14
F250
sg15
F500
sbag2
(g3
g4
NtRp1147
(dp1148
g7
F4400
sg8
F4200
sg9
(dp1149
g11
I1000
ssg12
F4200
sg13
F4000
sg14
F250
sg15
F500
sbag2
(g3
g4
NtRp1150
(dp1151
g7
F4400
sg8
F4200
sg9
(dp1152
g11
I1000
ssg12
F4400
sg13
F4200
sg14
F250
sg15
F500
sbag2
(g3
g4
NtRp1153
(dp1154
g7
F4400
sg8
F4200
sg9
(dp1155
g11
I1000
ssg12
F4600
sg13
F4400
sg14
F250
sg15
F500
sbag2
(g3
g4
NtRp1156
(dp1157
g7
F4400
sg8
F4200
sg9
(dp1158
g11
I1000
ssg12
F4800
sg13
F4600
sg14
F250
sg15
F500
sbag2
(g3
g4
NtRp1159
(dp1160
g7
F4400
sg8
F4200
sg9
(dp1161
g11
I1000
ssg12
F5000
sg13
F4800
sg14
F250
sg15
F500
sbag2
(g3
g4
NtRp1162
(dp1163
g7
F4400
sg8
F4200
sg9
(dp1164
g11
I1000
ssg12
F5200
sg13
F5000
sg14
F250
sg15
F500
sbag2
(g3
g4
NtRp1165
(dp1166
g7
F4400
sg8
F4200
sg9
(dp1167
g11
I1000
ssg12
F5400
sg13
F5200
sg14
F250
sg15
F500
sbag2
(g3
g4
NtRp1168
(dp1169
g7
F4400
sg8
F4200
sg9
(dp1170
g11
I1000
ssg12
F5600
sg13
F5400
sg14
F250
sg15
F500
sbag2
(g3
g4
NtRp1171
(dp1172
g7
F4400
sg8
F4200
sg9
(dp1173
g11
I1000
ssg12
F5800
sg13
F5600
sg14
F250
sg15
F500
sbag2
(g3
g4
NtRp1174
(dp1175
g7
F4400
sg8
F4200
sg9
(dp1176
g11
I1000
ssg12
F6000
sg13
F5800
sg14
F250
sg15
F500
sbag2
(g3
g4
NtRp1177
(dp1178
g7
F4600
sg8
F4400
sg9
(dp1179
g11
I1000
ssg12
F3200
sg13
F3000
sg14
F250
sg15
F500
sbag2
(g3
g4
NtRp1180
(dp1181
g7
F4600
sg8
F4400
sg9
(dp1182
g11
I1000
ssg12
F3400
sg13
F3200
sg14
F250
sg15
F500
sbag2
(g3
g4
NtRp1183
(dp1184
g7
F4600
sg8
F4400
sg9
(dp1185
g11
I1000
ssg12
F3600
sg13
F3400
sg14
F250
sg15
F500
sbag2
(g3
g4
NtRp1186
(dp1187
g7
F4600
sg8
F4400
sg9
(dp1188
g11
I1000
ssg12
F3800
sg13
F3600
sg14
F250
sg15
F500
sbag2
(g3
g4
NtRp1189
(dp1190
g7
F4600
sg8
F4400
sg9
(dp1191
g11
I1000
ssg12
F4000
sg13
F3800
sg14
F250
sg15
F500
sbag2
(g3
g4
NtRp1192
(dp1193
g7
F4600
sg8
F4400
sg9
(dp1194
g11
I1000
ssg12
F4200
sg13
F4000
sg14
F250
sg15
F500
sbag2
(g3
g4
NtRp1195
(dp1196
g7
F4600
sg8
F4400
sg9
(dp1197
g11
I1000
ssg12
F4400
sg13
F4200
sg14
F250
sg15
F500
sbag2
(g3
g4
NtRp1198
(dp1199
g7
F4600
sg8
F4400
sg9
(dp1200
g11
I1000
ssg12
F4600
sg13
F4400
sg14
F250
sg15
F500
sbag2
(g3
g4
NtRp1201
(dp1202
g7
F4600
sg8
F4400
sg9
(dp1203
g11
I1000
ssg12
F4800
sg13
F4600
sg14
F250
sg15
F500
sbag2
(g3
g4
NtRp1204
(dp1205
g7
F4600
sg8
F4400
sg9
(dp1206
g11
I1000
ssg12
F5000
sg13
F4800
sg14
F250
sg15
F500
sbag2
(g3
g4
NtRp1207
(dp1208
g7
F4600
sg8
F4400
sg9
(dp1209
g11
I1000
ssg12
F5200
sg13
F5000
sg14
F250
sg15
F500
sbag2
(g3
g4
NtRp1210
(dp1211
g7
F4600
sg8
F4400
sg9
(dp1212
g11
I1000
ssg12
F5400
sg13
F5200
sg14
F250
sg15
F500
sbag2
(g3
g4
NtRp1213
(dp1214
g7
F4600
sg8
F4400
sg9
(dp1215
g11
I1000
ssg12
F5600
sg13
F5400
sg14
F250
sg15
F500
sbag2
(g3
g4
NtRp1216
(dp1217
g7
F4600
sg8
F4400
sg9
(dp1218
g11
I1000
ssg12
F5800
sg13
F5600
sg14
F250
sg15
F500
sbag2
(g3
g4
NtRp1219
(dp1220
g7
F4600
sg8
F4400
sg9
(dp1221
g11
I1000
ssg12
F6000
sg13
F5800
sg14
F250
sg15
F500
sbag2
(g3
g4
NtRp1222
(dp1223
g7
F4600
sg8
F4400
sg9
(dp1224
g11
I1000
ssg12
F6200
sg13
F6000
sg14
F250
sg15
F500
sbag2
(g3
g4
NtRp1225
(dp1226
g7
F4800
sg8
F4600
sg9
(dp1227
g11
I1000
ssg12
F3600
sg13
F3400
sg14
F250
sg15
F500
sbag2
(g3
g4
NtRp1228
(dp1229
g7
F4800
sg8
F4600
sg9
(dp1230
g11
I1000
ssg12
F3800
sg13
F3600
sg14
F250
sg15
F500
sbag2
(g3
g4
NtRp1231
(dp1232
g7
F4800
sg8
F4600
sg9
(dp1233
g11
I1000
ssg12
F4000
sg13
F3800
sg14
F250
sg15
F500
sbag2
(g3
g4
NtRp1234
(dp1235
g7
F4800
sg8
F4600
sg9
(dp1236
g11
I1000
ssg12
F4200
sg13
F4000
sg14
F250
sg15
F500
sbag2
(g3
g4
NtRp1237
(dp1238
g7
F4800
sg8
F4600
sg9
(dp1239
g11
I1000
ssg12
F4400
sg13
F4200
sg14
F250
sg15
F500
sbag2
(g3
g4
NtRp1240
(dp1241
g7
F4800
sg8
F4600
sg9
(dp1242
g11
I1000
ssg12
F4600
sg13
F4400
sg14
F250
sg15
F500
sbag2
(g3
g4
NtRp1243
(dp1244
g7
F4800
sg8
F4600
sg9
(dp1245
g11
I1000
ssg12
F4800
sg13
F4600
sg14
F250
sg15
F500
sbag2
(g3
g4
NtRp1246
(dp1247
g7
F4800
sg8
F4600
sg9
(dp1248
g11
I1000
ssg12
F5000
sg13
F4800
sg14
F250
sg15
F500
sbag2
(g3
g4
NtRp1249
(dp1250
g7
F4800
sg8
F4600
sg9
(dp1251
g11
I1000
ssg12
F5200
sg13
F5000
sg14
F250
sg15
F500
sbag2
(g3
g4
NtRp1252
(dp1253
g7
F4800
sg8
F4600
sg9
(dp1254
g11
I1000
ssg12
F5400
sg13
F5200
sg14
F250
sg15
F500
sbag2
(g3
g4
NtRp1255
(dp1256
g7
F4800
sg8
F4600
sg9
(dp1257
g11
I1000
ssg12
F5600
sg13
F5400
sg14
F250
sg15
F500
sbag2
(g3
g4
NtRp1258
(dp1259
g7
F4800
sg8
F4600
sg9
(dp1260
g11
I1000
ssg12
F5800
sg13
F5600
sg14
F250
sg15
F500
sbag2
(g3
g4
NtRp1261
(dp1262
g7
F4800
sg8
F4600
sg9
(dp1263
g11
I1000
ssg12
F6000
sg13
F5800
sg14
F250
sg15
F500
sbag2
(g3
g4
NtRp1264
(dp1265
g7
F4800
sg8
F4600
sg9
(dp1266
g11
I1000
ssg12
F6200
sg13
F6000
sg14
F250
sg15
F500
sbag2
(g3
g4
NtRp1267
(dp1268
g7
F4800
sg8
F4600
sg9
(dp1269
g11
I1000
ssg12
F6400
sg13
F6200
sg14
F250
sg15
F500
sbag2
(g3
g4
NtRp1270
(dp1271
g7
F5000
sg8
F4800
sg9
(dp1272
g11
I1000
ssg12
F3800
sg13
F3600
sg14
F250
sg15
F500
sbag2
(g3
g4
NtRp1273
(dp1274
g7
F5000
sg8
F4800
sg9
(dp1275
g11
I1000
ssg12
F4000
sg13
F3800
sg14
F250
sg15
F500
sbag2
(g3
g4
NtRp1276
(dp1277
g7
F5000
sg8
F4800
sg9
(dp1278
g11
I1000
ssg12
F4200
sg13
F4000
sg14
F250
sg15
F500
sbag2
(g3
g4
NtRp1279
(dp1280
g7
F5000
sg8
F4800
sg9
(dp1281
g11
I1000
ssg12
F4400
sg13
F4200
sg14
F250
sg15
F500
sbag2
(g3
g4
NtRp1282
(dp1283
g7
F5000
sg8
F4800
sg9
(dp1284
g11
I1000
ssg12
F4600
sg13
F4400
sg14
F250
sg15
F500
sbag2
(g3
g4
NtRp1285
(dp1286
g7
F5000
sg8
F4800
sg9
(dp1287
g11
I1000
ssg12
F4800
sg13
F4600
sg14
F250
sg15
F500
sbag2
(g3
g4
NtRp1288
(dp1289
g7
F5000
sg8
F4800
sg9
(dp1290
g11
I1000
ssg12
F5000
sg13
F4800
sg14
F250
sg15
F500
sbag2
(g3
g4
NtRp1291
(dp1292
g7
F5000
sg8
F4800
sg9
(dp1293
g11
I1000
ssg12
F5200
sg13
F5000
sg14
F250
sg15
F500
sbag2
(g3
g4
NtRp1294
(dp1295
g7
F5000
sg8
F4800
sg9
(dp1296
g11
I1000
ssg12
F5400
sg13
F5200
sg14
F250
sg15
F500
sbag2
(g3
g4
NtRp1297
(dp1298
g7
F5000
sg8
F4800
sg9
(dp1299
g11
I1000
ssg12
F5600
sg13
F5400
sg14
F250
sg15
F500
sbag2
(g3
g4
NtRp1300
(dp1301
g7
F5000
sg8
F4800
sg9
(dp1302
g11
I1000
ssg12
F5800
sg13
F5600
sg14
F250
sg15
F500
sbag2
(g3
g4
NtRp1303
(dp1304
g7
F5000
sg8
F4800
sg9
(dp1305
g11
I1000
ssg12
F6000
sg13
F5800
sg14
F250
sg15
F500
sbag2
(g3
g4
NtRp1306
(dp1307
g7
F5000
sg8
F4800
sg9
(dp1308
g11
I1000
ssg12
F6200
sg13
F6000
sg14
F250
sg15
F500
sbag2
(g3
g4
NtRp1309
(dp1310
g7
F5000
sg8
F4800
sg9
(dp1311
g11
I1000
ssg12
F6400
sg13
F6200
sg14
F250
sg15
F500
sbag2
(g3
g4
NtRp1312
(dp1313
g7
F5000
sg8
F4800
sg9
(dp1314
g11
I1000
ssg12
F6600
sg13
F6400
sg14
F250
sg15
F500
sbag2
(g3
g4
NtRp1315
(dp1316
g7
F5200
sg8
F5000
sg9
(dp1317
g11
I1000
ssg12
F4000
sg13
F3800
sg14
F250
sg15
F500
sbag2
(g3
g4
NtRp1318
(dp1319
g7
F5200
sg8
F5000
sg9
(dp1320
g11
I1000
ssg12
F4200
sg13
F4000
sg14
F250
sg15
F500
sbag2
(g3
g4
NtRp1321
(dp1322
g7
F5200
sg8
F5000
sg9
(dp1323
g11
I1000
ssg12
F4400
sg13
F4200
sg14
F250
sg15
F500
sbag2
(g3
g4
NtRp1324
(dp1325
g7
F5200
sg8
F5000
sg9
(dp1326
g11
I1000
ssg12
F4600
sg13
F4400
sg14
F250
sg15
F500
sbag2
(g3
g4
NtRp1327
(dp1328
g7
F5200
sg8
F5000
sg9
(dp1329
g11
I1000
ssg12
F4800
sg13
F4600
sg14
F250
sg15
F500
sbag2
(g3
g4
NtRp1330
(dp1331
g7
F5200
sg8
F5000
sg9
(dp1332
g11
I1000
ssg12
F5000
sg13
F4800
sg14
F250
sg15
F500
sbag2
(g3
g4
NtRp1333
(dp1334
g7
F5200
sg8
F5000
sg9
(dp1335
g11
I1000
ssg12
F5200
sg13
F5000
sg14
F250
sg15
F500
sbag2
(g3
g4
NtRp1336
(dp1337
g7
F5200
sg8
F5000
sg9
(dp1338
g11
I1000
ssg12
F5400
sg13
F5200
sg14
F250
sg15
F500
sbag2
(g3
g4
NtRp1339
(dp1340
g7
F5200
sg8
F5000
sg9
(dp1341
g11
I1000
ssg12
F5600
sg13
F5400
sg14
F250
sg15
F500
sbag2
(g3
g4
NtRp1342
(dp1343
g7
F5200
sg8
F5000
sg9
(dp1344
g11
I1000
ssg12
F5800
sg13
F5600
sg14
F250
sg15
F500
sbag2
(g3
g4
NtRp1345
(dp1346
g7
F5200
sg8
F5000
sg9
(dp1347
g11
I1000
ssg12
F6000
sg13
F5800
sg14
F250
sg15
F500
sbag2
(g3
g4
NtRp1348
(dp1349
g7
F5200
sg8
F5000
sg9
(dp1350
g11
I1000
ssg12
F6200
sg13
F6000
sg14
F250
sg15
F500
sbag2
(g3
g4
NtRp1351
(dp1352
g7
F5200
sg8
F5000
sg9
(dp1353
g11
I1000
ssg12
F6400
sg13
F6200
sg14
F250
sg15
F500
sbag2
(g3
g4
NtRp1354
(dp1355
g7
F5200
sg8
F5000
sg9
(dp1356
g11
I1000
ssg12
F6600
sg13
F6400
sg14
F250
sg15
F500
sbag2
(g3
g4
NtRp1357
(dp1358
g7
F5200
sg8
F5000
sg9
(dp1359
g11
I1000
ssg12
F6800
sg13
F6600
sg14
F250
sg15
F500
sbag2
(g3
g4
NtRp1360
(dp1361
g7
F5400
sg8
F5200
sg9
(dp1362
g11
I1000
ssg12
F4000
sg13
F3800
sg14
F250
sg15
F500
sbag2
(g3
g4
NtRp1363
(dp1364
g7
F5400
sg8
F5200
sg9
(dp1365
g11
I1000
ssg12
F4200
sg13
F4000
sg14
F250
sg15
F500
sbag2
(g3
g4
NtRp1366
(dp1367
g7
F5400
sg8
F5200
sg9
(dp1368
g11
I1000
ssg12
F4400
sg13
F4200
sg14
F250
sg15
F500
sbag2
(g3
g4
NtRp1369
(dp1370
g7
F5400
sg8
F5200
sg9
(dp1371
g11
I1000
ssg12
F4600
sg13
F4400
sg14
F250
sg15
F500
sbag2
(g3
g4
NtRp1372
(dp1373
g7
F5400
sg8
F5200
sg9
(dp1374
g11
I1000
ssg12
F4800
sg13
F4600
sg14
F250
sg15
F500
sbag2
(g3
g4
NtRp1375
(dp1376
g7
F5400
sg8
F5200
sg9
(dp1377
g11
I1000
ssg12
F5000
sg13
F4800
sg14
F250
sg15
F500
sbag2
(g3
g4
NtRp1378
(dp1379
g7
F5400
sg8
F5200
sg9
(dp1380
g11
I1000
ssg12
F5200
sg13
F5000
sg14
F250
sg15
F500
sbag2
(g3
g4
NtRp1381
(dp1382
g7
F5400
sg8
F5200
sg9
(dp1383
g11
I1000
ssg12
F5400
sg13
F5200
sg14
F250
sg15
F500
sbag2
(g3
g4
NtRp1384
(dp1385
g7
F5400
sg8
F5200
sg9
(dp1386
g11
I1000
ssg12
F5600
sg13
F5400
sg14
F250
sg15
F500
sbag2
(g3
g4
NtRp1387
(dp1388
g7
F5400
sg8
F5200
sg9
(dp1389
g11
I1000
ssg12
F5800
sg13
F5600
sg14
F250
sg15
F500
sbag2
(g3
g4
NtRp1390
(dp1391
g7
F5400
sg8
F5200
sg9
(dp1392
g11
I1000
ssg12
F6000
sg13
F5800
sg14
F250
sg15
F500
sbag2
(g3
g4
NtRp1393
(dp1394
g7
F5400
sg8
F5200
sg9
(dp1395
g11
I1000
ssg12
F6200
sg13
F6000
sg14
F250
sg15
F500
sbag2
(g3
g4
NtRp1396
(dp1397
g7
F5400
sg8
F5200
sg9
(dp1398
g11
I1000
ssg12
F6400
sg13
F6200
sg14
F250
sg15
F500
sbag2
(g3
g4
NtRp1399
(dp1400
g7
F5400
sg8
F5200
sg9
(dp1401
g11
I1000
ssg12
F6600
sg13
F6400
sg14
F250
sg15
F500
sbag2
(g3
g4
NtRp1402
(dp1403
g7
F5400
sg8
F5200
sg9
(dp1404
g11
I1000
ssg12
F6800
sg13
F6600
sg14
F250
sg15
F500
sbag2
(g3
g4
NtRp1405
(dp1406
g7
F5600
sg8
F5400
sg9
(dp1407
g11
I1000
ssg12
F4400
sg13
F4200
sg14
F250
sg15
F500
sbag2
(g3
g4
NtRp1408
(dp1409
g7
F5600
sg8
F5400
sg9
(dp1410
g11
I1000
ssg12
F4600
sg13
F4400
sg14
F250
sg15
F500
sbag2
(g3
g4
NtRp1411
(dp1412
g7
F5600
sg8
F5400
sg9
(dp1413
g11
I1000
ssg12
F4800
sg13
F4600
sg14
F250
sg15
F500
sbag2
(g3
g4
NtRp1414
(dp1415
g7
F5600
sg8
F5400
sg9
(dp1416
g11
I1000
ssg12
F5000
sg13
F4800
sg14
F250
sg15
F500
sbag2
(g3
g4
NtRp1417
(dp1418
g7
F5600
sg8
F5400
sg9
(dp1419
g11
I1000
ssg12
F5200
sg13
F5000
sg14
F250
sg15
F500
sbag2
(g3
g4
NtRp1420
(dp1421
g7
F5600
sg8
F5400
sg9
(dp1422
g11
I1000
ssg12
F5400
sg13
F5200
sg14
F250
sg15
F500
sbag2
(g3
g4
NtRp1423
(dp1424
g7
F5600
sg8
F5400
sg9
(dp1425
g11
I1000
ssg12
F5600
sg13
F5400
sg14
F250
sg15
F500
sbag2
(g3
g4
NtRp1426
(dp1427
g7
F5600
sg8
F5400
sg9
(dp1428
g11
I1000
ssg12
F5800
sg13
F5600
sg14
F250
sg15
F500
sbag2
(g3
g4
NtRp1429
(dp1430
g7
F5600
sg8
F5400
sg9
(dp1431
g11
I1000
ssg12
F6000
sg13
F5800
sg14
F250
sg15
F500
sbag2
(g3
g4
NtRp1432
(dp1433
g7
F5600
sg8
F5400
sg9
(dp1434
g11
I1000
ssg12
F6200
sg13
F6000
sg14
F250
sg15
F500
sbag2
(g3
g4
NtRp1435
(dp1436
g7
F5600
sg8
F5400
sg9
(dp1437
g11
I1000
ssg12
F6400
sg13
F6200
sg14
F250
sg15
F500
sbag2
(g3
g4
NtRp1438
(dp1439
g7
F5600
sg8
F5400
sg9
(dp1440
g11
I1000
ssg12
F6600
sg13
F6400
sg14
F250
sg15
F500
sbag2
(g3
g4
NtRp1441
(dp1442
g7
F5600
sg8
F5400
sg9
(dp1443
g11
I1000
ssg12
F6800
sg13
F6600
sg14
F250
sg15
F500
sbag2
(g3
g4
NtRp1444
(dp1445
g7
F5600
sg8
F5400
sg9
(dp1446
g11
I1000
ssg12
F7000
sg13
F6800
sg14
F250
sg15
F500
sbag2
(g3
g4
NtRp1447
(dp1448
g7
F5800
sg8
F5600
sg9
(dp1449
g11
I1000
ssg12
F4800
sg13
F4600
sg14
F250
sg15
F500
sbag2
(g3
g4
NtRp1450
(dp1451
g7
F5800
sg8
F5600
sg9
(dp1452
g11
I1000
ssg12
F5000
sg13
F4800
sg14
F250
sg15
F500
sbag2
(g3
g4
NtRp1453
(dp1454
g7
F5800
sg8
F5600
sg9
(dp1455
g11
I1000
ssg12
F5200
sg13
F5000
sg14
F250
sg15
F500
sbag2
(g3
g4
NtRp1456
(dp1457
g7
F5800
sg8
F5600
sg9
(dp1458
g11
I1000
ssg12
F5400
sg13
F5200
sg14
F250
sg15
F500
sbag2
(g3
g4
NtRp1459
(dp1460
g7
F5800
sg8
F5600
sg9
(dp1461
g11
I1000
ssg12
F5600
sg13
F5400
sg14
F250
sg15
F500
sbag2
(g3
g4
NtRp1462
(dp1463
g7
F5800
sg8
F5600
sg9
(dp1464
g11
I1000
ssg12
F5800
sg13
F5600
sg14
F250
sg15
F500
sbag2
(g3
g4
NtRp1465
(dp1466
g7
F5800
sg8
F5600
sg9
(dp1467
g11
I1000
ssg12
F6000
sg13
F5800
sg14
F250
sg15
F500
sbag2
(g3
g4
NtRp1468
(dp1469
g7
F5800
sg8
F5600
sg9
(dp1470
g11
I1000
ssg12
F6200
sg13
F6000
sg14
F250
sg15
F500
sbag2
(g3
g4
NtRp1471
(dp1472
g7
F5800
sg8
F5600
sg9
(dp1473
g11
I1000
ssg12
F6400
sg13
F6200
sg14
F250
sg15
F500
sbag2
(g3
g4
NtRp1474
(dp1475
g7
F5800
sg8
F5600
sg9
(dp1476
g11
I1000
ssg12
F6600
sg13
F6400
sg14
F250
sg15
F500
sbag2
(g3
g4
NtRp1477
(dp1478
g7
F5800
sg8
F5600
sg9
(dp1479
g11
I1000
ssg12
F6800
sg13
F6600
sg14
F250
sg15
F500
sbag2
(g3
g4
NtRp1480
(dp1481
g7
F6000
sg8
F5800
sg9
(dp1482
g11
I1000
ssg12
F4800
sg13
F4600
sg14
F250
sg15
F500
sbag2
(g3
g4
NtRp1483
(dp1484
g7
F6000
sg8
F5800
sg9
(dp1485
g11
I1000
ssg12
F5000
sg13
F4800
sg14
F250
sg15
F500
sbag2
(g3
g4
NtRp1486
(dp1487
g7
F6000
sg8
F5800
sg9
(dp1488
g11
I1000
ssg12
F5200
sg13
F5000
sg14
F250
sg15
F500
sbag2
(g3
g4
NtRp1489
(dp1490
g7
F6000
sg8
F5800
sg9
(dp1491
g11
I1000
ssg12
F5400
sg13
F5200
sg14
F250
sg15
F500
sbag2
(g3
g4
NtRp1492
(dp1493
g7
F6000
sg8
F5800
sg9
(dp1494
g11
I1000
ssg12
F5600
sg13
F5400
sg14
F250
sg15
F500
sbag2
(g3
g4
NtRp1495
(dp1496
g7
F6000
sg8
F5800
sg9
(dp1497
g11
I1000
ssg12
F5800
sg13
F5600
sg14
F250
sg15
F500
sbag2
(g3
g4
NtRp1498
(dp1499
g7
F6000
sg8
F5800
sg9
(dp1500
g11
I1000
ssg12
F6000
sg13
F5800
sg14
F250
sg15
F500
sbag2
(g3
g4
NtRp1501
(dp1502
g7
F6000
sg8
F5800
sg9
(dp1503
g11
I1000
ssg12
F6200
sg13
F6000
sg14
F250
sg15
F500
sbag2
(g3
g4
NtRp1504
(dp1505
g7
F6000
sg8
F5800
sg9
(dp1506
g11
I1000
ssg12
F6400
sg13
F6200
sg14
F250
sg15
F500
sbag2
(g3
g4
NtRp1507
(dp1508
g7
F6000
sg8
F5800
sg9
(dp1509
g11
I1000
ssg12
F6600
sg13
F6400
sg14
F250
sg15
F500
sbag2
(g3
g4
NtRp1510
(dp1511
g7
F6000
sg8
F5800
sg9
(dp1512
g11
I1000
ssg12
F6800
sg13
F6600
sg14
F250
sg15
F500
sbag2
(g3
g4
NtRp1513
(dp1514
g7
F6000
sg8
F5800
sg9
(dp1515
g11
I1000
ssg12
F7000
sg13
F6800
sg14
F250
sg15
F500
sbag2
(g3
g4
NtRp1516
(dp1517
g7
F6200
sg8
F6000
sg9
(dp1518
g11
I1000
ssg12
F5200
sg13
F5000
sg14
F250
sg15
F500
sbag2
(g3
g4
NtRp1519
(dp1520
g7
F6200
sg8
F6000
sg9
(dp1521
g11
I1000
ssg12
F5400
sg13
F5200
sg14
F250
sg15
F500
sbag2
(g3
g4
NtRp1522
(dp1523
g7
F6200
sg8
F6000
sg9
(dp1524
g11
I1000
ssg12
F5600
sg13
F5400
sg14
F250
sg15
F500
sbag2
(g3
g4
NtRp1525
(dp1526
g7
F6200
sg8
F6000
sg9
(dp1527
g11
I1000
ssg12
F5800
sg13
F5600
sg14
F250
sg15
F500
sbag2
(g3
g4
NtRp1528
(dp1529
g7
F6200
sg8
F6000
sg9
(dp1530
g11
I1000
ssg12
F6000
sg13
F5800
sg14
F250
sg15
F500
sbag2
(g3
g4
NtRp1531
(dp1532
g7
F6200
sg8
F6000
sg9
(dp1533
g11
I1000
ssg12
F6200
sg13
F6000
sg14
F250
sg15
F500
sbag2
(g3
g4
NtRp1534
(dp1535
g7
F6200
sg8
F6000
sg9
(dp1536
g11
I1000
ssg12
F6400
sg13
F6200
sg14
F250
sg15
F500
sbag2
(g3
g4
NtRp1537
(dp1538
g7
F6200
sg8
F6000
sg9
(dp1539
g11
I1000
ssg12
F6600
sg13
F6400
sg14
F250
sg15
F500
sbag2
(g3
g4
NtRp1540
(dp1541
g7
F6200
sg8
F6000
sg9
(dp1542
g11
I1000
ssg12
F6800
sg13
F6600
sg14
F250
sg15
F500
sbag2
(g3
g4
NtRp1543
(dp1544
g7
F6200
sg8
F6000
sg9
(dp1545
g11
I1000
ssg12
F7000
sg13
F6800
sg14
F250
sg15
F500
sbag2
(g3
g4
NtRp1546
(dp1547
g7
F6400
sg8
F6200
sg9
(dp1548
g11
I1000
ssg12
F5400
sg13
F5200
sg14
F250
sg15
F500
sbag2
(g3
g4
NtRp1549
(dp1550
g7
F6400
sg8
F6200
sg9
(dp1551
g11
I1000
ssg12
F5600
sg13
F5400
sg14
F250
sg15
F500
sbag2
(g3
g4
NtRp1552
(dp1553
g7
F6400
sg8
F6200
sg9
(dp1554
g11
I1000
ssg12
F5800
sg13
F5600
sg14
F250
sg15
F500
sbag2
(g3
g4
NtRp1555
(dp1556
g7
F6400
sg8
F6200
sg9
(dp1557
g11
I1000
ssg12
F6000
sg13
F5800
sg14
F250
sg15
F500
sbag2
(g3
g4
NtRp1558
(dp1559
g7
F6400
sg8
F6200
sg9
(dp1560
g11
I1000
ssg12
F6200
sg13
F6000
sg14
F250
sg15
F500
sbag2
(g3
g4
NtRp1561
(dp1562
g7
F6400
sg8
F6200
sg9
(dp1563
g11
I1000
ssg12
F6400
sg13
F6200
sg14
F250
sg15
F500
sbag2
(g3
g4
NtRp1564
(dp1565
g7
F6400
sg8
F6200
sg9
(dp1566
g11
I1000
ssg12
F6600
sg13
F6400
sg14
F250
sg15
F500
sbag2
(g3
g4
NtRp1567
(dp1568
g7
F6400
sg8
F6200
sg9
(dp1569
g11
I1000
ssg12
F6800
sg13
F6600
sg14
F250
sg15
F500
sbag2
(g3
g4
NtRp1570
(dp1571
g7
F6400
sg8
F6200
sg9
(dp1572
g11
I1000
ssg12
F7000
sg13
F6800
sg14
F250
sg15
F500
sbag2
(g3
g4
NtRp1573
(dp1574
g7
F6400
sg8
F6200
sg9
(dp1575
g11
I1000
ssg12
F7200
sg13
F7000
sg14
F250
sg15
F500
sbag2
(g3
g4
NtRp1576
(dp1577
g7
F6600
sg8
F6400
sg9
(dp1578
g11
I1000
ssg12
F5600
sg13
F5400
sg14
F250
sg15
F500
sbag2
(g3
g4
NtRp1579
(dp1580
g7
F6600
sg8
F6400
sg9
(dp1581
g11
I1000
ssg12
F5800
sg13
F5600
sg14
F250
sg15
F500
sbag2
(g3
g4
NtRp1582
(dp1583
g7
F6600
sg8
F6400
sg9
(dp1584
g11
I1000
ssg12
F6000
sg13
F5800
sg14
F250
sg15
F500
sbag2
(g3
g4
NtRp1585
(dp1586
g7
F6600
sg8
F6400
sg9
(dp1587
g11
I1000
ssg12
F6200
sg13
F6000
sg14
F250
sg15
F500
sbag2
(g3
g4
NtRp1588
(dp1589
g7
F6600
sg8
F6400
sg9
(dp1590
g11
I1000
ssg12
F6400
sg13
F6200
sg14
F250
sg15
F500
sbag2
(g3
g4
NtRp1591
(dp1592
g7
F6600
sg8
F6400
sg9
(dp1593
g11
I1000
ssg12
F6600
sg13
F6400
sg14
F250
sg15
F500
sbag2
(g3
g4
NtRp1594
(dp1595
g7
F6600
sg8
F6400
sg9
(dp1596
g11
I1000
ssg12
F6800
sg13
F6600
sg14
F250
sg15
F500
sbag2
(g3
g4
NtRp1597
(dp1598
g7
F6600
sg8
F6400
sg9
(dp1599
g11
I1000
ssg12
F7000
sg13
F6800
sg14
F250
sg15
F500
sbag2
(g3
g4
NtRp1600
(dp1601
g7
F6600
sg8
F6400
sg9
(dp1602
g11
I1000
ssg12
F7200
sg13
F7000
sg14
F250
sg15
F500
sbag2
(g3
g4
NtRp1603
(dp1604
g7
F6600
sg8
F6400
sg9
(dp1605
g11
I1000
ssg12
F7400
sg13
F7200
sg14
F250
sg15
F500
sbag2
(g3
g4
NtRp1606
(dp1607
g7
F6600
sg8
F6400
sg9
(dp1608
g11
I1000
ssg12
F7600
sg13
F7400
sg14
F250
sg15
F500
sbag2
(g3
g4
NtRp1609
(dp1610
g7
F6800
sg8
F6600
sg9
(dp1611
g11
I1000
ssg12
F6800
sg13
F6600
sg14
F250
sg15
F500
sbag2
(g3
g4
NtRp1612
(dp1613
g7
F6800
sg8
F6600
sg9
(dp1614
g11
I1000
ssg12
F7000
sg13
F6800
sg14
F250
sg15
F500
sbag2
(g3
g4
NtRp1615
(dp1616
g7
F6800
sg8
F6600
sg9
(dp1617
g11
I1000
ssg12
F7200
sg13
F7000
sg14
F250
sg15
F500
sbag2
(g3
g4
NtRp1618
(dp1619
g7
F6800
sg8
F6600
sg9
(dp1620
g11
I1000
ssg12
F7400
sg13
F7200
sg14
F250
sg15
F500
sbag2
(g3
g4
NtRp1621
(dp1622
g7
F6800
sg8
F6600
sg9
(dp1623
g11
I1000
ssg12
F7600
sg13
F7400
sg14
F250
sg15
F500
sbag2
(g3
g4
NtRp1624
(dp1625
g7
F7000
sg8
F6800
sg9
(dp1626
g11
I1000
ssg12
F7000
sg13
F6800
sg14
F250
sg15
F500
sbag2
(g3
g4
NtRp1627
(dp1628
g7
F7000
sg8
F6800
sg9
(dp1629
g11
I1000
ssg12
F7200
sg13
F7000
sg14
F250
sg15
F500
sbag2
(g3
g4
NtRp1630
(dp1631
g7
F7000
sg8
F6800
sg9
(dp1632
g11
I1000
ssg12
F7400
sg13
F7200
sg14
F250
sg15
F500
sbag2
(g3
g4
NtRp1633
(dp1634
g7
F7000
sg8
F6800
sg9
(dp1635
g11
I1000
ssg12
F7600
sg13
F7400
sg14
F250
sg15
F500
sbag2
(g3
g4
NtRp1636
(dp1637
g7
F7200
sg8
F7000
sg9
(dp1638
g11
I1000
ssg12
F7200
sg13
F7000
sg14
F250
sg15
F500
sbag2
(g3
g4
NtRp1639
(dp1640
g7
F7200
sg8
F7000
sg9
(dp1641
g11
I1000
ssg12
F7400
sg13
F7200
sg14
F250
sg15
F500
sbag2
(g3
g4
NtRp1642
(dp1643
g7
F2400
sg8
F2200
sg9
(dp1644
g11
I1000
ssg12
F3800
sg13
F3600
sg14
F500
sg15
F750
sbag2
(g3
g4
NtRp1645
(dp1646
g7
F2400
sg8
F2200
sg9
(dp1647
g11
I1000
ssg12
F4000
sg13
F3800
sg14
F500
sg15
F750
sbag2
(g3
g4
NtRp1648
(dp1649
g7
F2400
sg8
F2200
sg9
(dp1650
g11
I1000
ssg12
F4200
sg13
F4000
sg14
F500
sg15
F750
sbag2
(g3
g4
NtRp1651
(dp1652
g7
F2600
sg8
F2400
sg9
(dp1653
g11
I1000
ssg12
F3400
sg13
F3200
sg14
F500
sg15
F750
sbag2
(g3
g4
NtRp1654
(dp1655
g7
F2600
sg8
F2400
sg9
(dp1656
g11
I1000
ssg12
F3600
sg13
F3400
sg14
F500
sg15
F750
sbag2
(g3
g4
NtRp1657
(dp1658
g7
F2600
sg8
F2400
sg9
(dp1659
g11
I1000
ssg12
F3800
sg13
F3600
sg14
F500
sg15
F750
sbag2
(g3
g4
NtRp1660
(dp1661
g7
F2600
sg8
F2400
sg9
(dp1662
g11
I1000
ssg12
F4000
sg13
F3800
sg14
F500
sg15
F750
sbag2
(g3
g4
NtRp1663
(dp1664
g7
F2600
sg8
F2400
sg9
(dp1665
g11
I1000
ssg12
F4200
sg13
F4000
sg14
F500
sg15
F750
sbag2
(g3
g4
NtRp1666
(dp1667
g7
F2600
sg8
F2400
sg9
(dp1668
g11
I1000
ssg12
F4400
sg13
F4200
sg14
F500
sg15
F750
sbag2
(g3
g4
NtRp1669
(dp1670
g7
F2800
sg8
F2600
sg9
(dp1671
g11
I1000
ssg12
F3200
sg13
F3000
sg14
F500
sg15
F750
sbag2
(g3
g4
NtRp1672
(dp1673
g7
F2800
sg8
F2600
sg9
(dp1674
g11
I1000
ssg12
F3400
sg13
F3200
sg14
F500
sg15
F750
sbag2
(g3
g4
NtRp1675
(dp1676
g7
F2800
sg8
F2600
sg9
(dp1677
g11
I1000
ssg12
F3600
sg13
F3400
sg14
F500
sg15
F750
sbag2
(g3
g4
NtRp1678
(dp1679
g7
F2800
sg8
F2600
sg9
(dp1680
g11
I1000
ssg12
F3800
sg13
F3600
sg14
F500
sg15
F750
sbag2
(g3
g4
NtRp1681
(dp1682
g7
F2800
sg8
F2600
sg9
(dp1683
g11
I1000
ssg12
F4000
sg13
F3800
sg14
F500
sg15
F750
sbag2
(g3
g4
NtRp1684
(dp1685
g7
F2800
sg8
F2600
sg9
(dp1686
g11
I1000
ssg12
F4200
sg13
F4000
sg14
F500
sg15
F750
sbag2
(g3
g4
NtRp1687
(dp1688
g7
F2800
sg8
F2600
sg9
(dp1689
g11
I1000
ssg12
F4400
sg13
F4200
sg14
F500
sg15
F750
sbag2
(g3
g4
NtRp1690
(dp1691
g7
F3000
sg8
F2800
sg9
(dp1692
g11
I1000
ssg12
F2800
sg13
F2600
sg14
F500
sg15
F750
sbag2
(g3
g4
NtRp1693
(dp1694
g7
F3000
sg8
F2800
sg9
(dp1695
g11
I1000
ssg12
F3000
sg13
F2800
sg14
F500
sg15
F750
sbag2
(g3
g4
NtRp1696
(dp1697
g7
F3000
sg8
F2800
sg9
(dp1698
g11
I1000
ssg12
F3200
sg13
F3000
sg14
F500
sg15
F750
sbag2
(g3
g4
NtRp1699
(dp1700
g7
F3000
sg8
F2800
sg9
(dp1701
g11
I1000
ssg12
F3400
sg13
F3200
sg14
F500
sg15
F750
sbag2
(g3
g4
NtRp1702
(dp1703
g7
F3000
sg8
F2800
sg9
(dp1704
g11
I1000
ssg12
F3600
sg13
F3400
sg14
F500
sg15
F750
sbag2
(g3
g4
NtRp1705
(dp1706
g7
F3000
sg8
F2800
sg9
(dp1707
g11
I1000
ssg12
F3800
sg13
F3600
sg14
F500
sg15
F750
sbag2
(g3
g4
NtRp1708
(dp1709
g7
F3000
sg8
F2800
sg9
(dp1710
g11
I1000
ssg12
F4000
sg13
F3800
sg14
F500
sg15
F750
sbag2
(g3
g4
NtRp1711
(dp1712
g7
F3000
sg8
F2800
sg9
(dp1713
g11
I1000
ssg12
F4200
sg13
F4000
sg14
F500
sg15
F750
sbag2
(g3
g4
NtRp1714
(dp1715
g7
F3000
sg8
F2800
sg9
(dp1716
g11
I1000
ssg12
F4400
sg13
F4200
sg14
F500
sg15
F750
sbag2
(g3
g4
NtRp1717
(dp1718
g7
F3200
sg8
F3000
sg9
(dp1719
g11
I1000
ssg12
F2600
sg13
F2400
sg14
F500
sg15
F750
sbag2
(g3
g4
NtRp1720
(dp1721
g7
F3200
sg8
F3000
sg9
(dp1722
g11
I1000
ssg12
F2800
sg13
F2600
sg14
F500
sg15
F750
sbag2
(g3
g4
NtRp1723
(dp1724
g7
F3200
sg8
F3000
sg9
(dp1725
g11
I1000
ssg12
F3000
sg13
F2800
sg14
F500
sg15
F750
sbag2
(g3
g4
NtRp1726
(dp1727
g7
F3200
sg8
F3000
sg9
(dp1728
g11
I1000
ssg12
F3200
sg13
F3000
sg14
F500
sg15
F750
sbag2
(g3
g4
NtRp1729
(dp1730
g7
F3200
sg8
F3000
sg9
(dp1731
g11
I1000
ssg12
F3400
sg13
F3200
sg14
F500
sg15
F750
sbag2
(g3
g4
NtRp1732
(dp1733
g7
F3200
sg8
F3000
sg9
(dp1734
g11
I1000
ssg12
F3600
sg13
F3400
sg14
F500
sg15
F750
sbag2
(g3
g4
NtRp1735
(dp1736
g7
F3200
sg8
F3000
sg9
(dp1737
g11
I1000
ssg12
F3800
sg13
F3600
sg14
F500
sg15
F750
sbag2
(g3
g4
NtRp1738
(dp1739
g7
F3200
sg8
F3000
sg9
(dp1740
g11
I1000
ssg12
F4000
sg13
F3800
sg14
F500
sg15
F750
sbag2
(g3
g4
NtRp1741
(dp1742
g7
F3200
sg8
F3000
sg9
(dp1743
g11
I1000
ssg12
F4200
sg13
F4000
sg14
F500
sg15
F750
sbag2
(g3
g4
NtRp1744
(dp1745
g7
F3200
sg8
F3000
sg9
(dp1746
g11
I1000
ssg12
F4400
sg13
F4200
sg14
F500
sg15
F750
sbag2
(g3
g4
NtRp1747
(dp1748
g7
F3200
sg8
F3000
sg9
(dp1749
g11
I1000
ssg12
F4600
sg13
F4400
sg14
F500
sg15
F750
sbag2
(g3
g4
NtRp1750
(dp1751
g7
F3400
sg8
F3200
sg9
(dp1752
g11
I1000
ssg12
F2600
sg13
F2400
sg14
F500
sg15
F750
sbag2
(g3
g4
NtRp1753
(dp1754
g7
F3400
sg8
F3200
sg9
(dp1755
g11
I1000
ssg12
F2800
sg13
F2600
sg14
F500
sg15
F750
sbag2
(g3
g4
NtRp1756
(dp1757
g7
F3400
sg8
F3200
sg9
(dp1758
g11
I1000
ssg12
F3000
sg13
F2800
sg14
F500
sg15
F750
sbag2
(g3
g4
NtRp1759
(dp1760
g7
F3400
sg8
F3200
sg9
(dp1761
g11
I1000
ssg12
F3200
sg13
F3000
sg14
F500
sg15
F750
sbag2
(g3
g4
NtRp1762
(dp1763
g7
F3400
sg8
F3200
sg9
(dp1764
g11
I1000
ssg12
F3400
sg13
F3200
sg14
F500
sg15
F750
sbag2
(g3
g4
NtRp1765
(dp1766
g7
F3400
sg8
F3200
sg9
(dp1767
g11
I1000
ssg12
F3600
sg13
F3400
sg14
F500
sg15
F750
sbag2
(g3
g4
NtRp1768
(dp1769
g7
F3400
sg8
F3200
sg9
(dp1770
g11
I1000
ssg12
F3800
sg13
F3600
sg14
F500
sg15
F750
sbag2
(g3
g4
NtRp1771
(dp1772
g7
F3400
sg8
F3200
sg9
(dp1773
g11
I1000
ssg12
F4000
sg13
F3800
sg14
F500
sg15
F750
sbag2
(g3
g4
NtRp1774
(dp1775
g7
F3400
sg8
F3200
sg9
(dp1776
g11
I1000
ssg12
F4200
sg13
F4000
sg14
F500
sg15
F750
sbag2
(g3
g4
NtRp1777
(dp1778
g7
F3400
sg8
F3200
sg9
(dp1779
g11
I1000
ssg12
F4400
sg13
F4200
sg14
F500
sg15
F750
sbag2
(g3
g4
NtRp1780
(dp1781
g7
F3400
sg8
F3200
sg9
(dp1782
g11
I1000
ssg12
F4600
sg13
F4400
sg14
F500
sg15
F750
sbag2
(g3
g4
NtRp1783
(dp1784
g7
F3400
sg8
F3200
sg9
(dp1785
g11
I1000
ssg12
F4800
sg13
F4600
sg14
F500
sg15
F750
sbag2
(g3
g4
NtRp1786
(dp1787
g7
F3600
sg8
F3400
sg9
(dp1788
g11
I1000
ssg12
F2400
sg13
F2200
sg14
F500
sg15
F750
sbag2
(g3
g4
NtRp1789
(dp1790
g7
F3600
sg8
F3400
sg9
(dp1791
g11
I1000
ssg12
F2600
sg13
F2400
sg14
F500
sg15
F750
sbag2
(g3
g4
NtRp1792
(dp1793
g7
F3600
sg8
F3400
sg9
(dp1794
g11
I1000
ssg12
F2800
sg13
F2600
sg14
F500
sg15
F750
sbag2
(g3
g4
NtRp1795
(dp1796
g7
F3600
sg8
F3400
sg9
(dp1797
g11
I1000
ssg12
F3000
sg13
F2800
sg14
F500
sg15
F750
sbag2
(g3
g4
NtRp1798
(dp1799
g7
F3600
sg8
F3400
sg9
(dp1800
g11
I1000
ssg12
F3200
sg13
F3000
sg14
F500
sg15
F750
sbag2
(g3
g4
NtRp1801
(dp1802
g7
F3600
sg8
F3400
sg9
(dp1803
g11
I1000
ssg12
F3400
sg13
F3200
sg14
F500
sg15
F750
sbag2
(g3
g4
NtRp1804
(dp1805
g7
F3600
sg8
F3400
sg9
(dp1806
g11
I1000
ssg12
F3600
sg13
F3400
sg14
F500
sg15
F750
sbag2
(g3
g4
NtRp1807
(dp1808
g7
F3600
sg8
F3400
sg9
(dp1809
g11
I1000
ssg12
F3800
sg13
F3600
sg14
F500
sg15
F750
sbag2
(g3
g4
NtRp1810
(dp1811
g7
F3600
sg8
F3400
sg9
(dp1812
g11
I1000
ssg12
F4000
sg13
F3800
sg14
F500
sg15
F750
sbag2
(g3
g4
NtRp1813
(dp1814
g7
F3600
sg8
F3400
sg9
(dp1815
g11
I1000
ssg12
F4200
sg13
F4000
sg14
F500
sg15
F750
sbag2
(g3
g4
NtRp1816
(dp1817
g7
F3600
sg8
F3400
sg9
(dp1818
g11
I1000
ssg12
F4400
sg13
F4200
sg14
F500
sg15
F750
sbag2
(g3
g4
NtRp1819
(dp1820
g7
F3600
sg8
F3400
sg9
(dp1821
g11
I1000
ssg12
F4600
sg13
F4400
sg14
F500
sg15
F750
sbag2
(g3
g4
NtRp1822
(dp1823
g7
F3600
sg8
F3400
sg9
(dp1824
g11
I1000
ssg12
F4800
sg13
F4600
sg14
F500
sg15
F750
sbag2
(g3
g4
NtRp1825
(dp1826
g7
F3600
sg8
F3400
sg9
(dp1827
g11
I1000
ssg12
F5000
sg13
F4800
sg14
F500
sg15
F750
sbag2
(g3
g4
NtRp1828
(dp1829
g7
F3600
sg8
F3400
sg9
(dp1830
g11
I1000
ssg12
F5200
sg13
F5000
sg14
F500
sg15
F750
sbag2
(g3
g4
NtRp1831
(dp1832
g7
F3800
sg8
F3600
sg9
(dp1833
g11
I1000
ssg12
F2400
sg13
F2200
sg14
F500
sg15
F750
sbag2
(g3
g4
NtRp1834
(dp1835
g7
F3800
sg8
F3600
sg9
(dp1836
g11
I1000
ssg12
F2600
sg13
F2400
sg14
F500
sg15
F750
sbag2
(g3
g4
NtRp1837
(dp1838
g7
F3800
sg8
F3600
sg9
(dp1839
g11
I1000
ssg12
F2800
sg13
F2600
sg14
F500
sg15
F750
sbag2
(g3
g4
NtRp1840
(dp1841
g7
F3800
sg8
F3600
sg9
(dp1842
g11
I1000
ssg12
F3000
sg13
F2800
sg14
F500
sg15
F750
sbag2
(g3
g4
NtRp1843
(dp1844
g7
F3800
sg8
F3600
sg9
(dp1845
g11
I1000
ssg12
F3200
sg13
F3000
sg14
F500
sg15
F750
sbag2
(g3
g4
NtRp1846
(dp1847
g7
F3800
sg8
F3600
sg9
(dp1848
g11
I1000
ssg12
F3400
sg13
F3200
sg14
F500
sg15
F750
sbag2
(g3
g4
NtRp1849
(dp1850
g7
F3800
sg8
F3600
sg9
(dp1851
g11
I1000
ssg12
F3600
sg13
F3400
sg14
F500
sg15
F750
sbag2
(g3
g4
NtRp1852
(dp1853
g7
F3800
sg8
F3600
sg9
(dp1854
g11
I1000
ssg12
F3800
sg13
F3600
sg14
F500
sg15
F750
sbag2
(g3
g4
NtRp1855
(dp1856
g7
F3800
sg8
F3600
sg9
(dp1857
g11
I1000
ssg12
F4000
sg13
F3800
sg14
F500
sg15
F750
sbag2
(g3
g4
NtRp1858
(dp1859
g7
F3800
sg8
F3600
sg9
(dp1860
g11
I1000
ssg12
F4200
sg13
F4000
sg14
F500
sg15
F750
sbag2
(g3
g4
NtRp1861
(dp1862
g7
F3800
sg8
F3600
sg9
(dp1863
g11
I1000
ssg12
F4400
sg13
F4200
sg14
F500
sg15
F750
sbag2
(g3
g4
NtRp1864
(dp1865
g7
F3800
sg8
F3600
sg9
(dp1866
g11
I1000
ssg12
F4600
sg13
F4400
sg14
F500
sg15
F750
sbag2
(g3
g4
NtRp1867
(dp1868
g7
F3800
sg8
F3600
sg9
(dp1869
g11
I1000
ssg12
F4800
sg13
F4600
sg14
F500
sg15
F750
sbag2
(g3
g4
NtRp1870
(dp1871
g7
F3800
sg8
F3600
sg9
(dp1872
g11
I1000
ssg12
F5000
sg13
F4800
sg14
F500
sg15
F750
sbag2
(g3
g4
NtRp1873
(dp1874
g7
F3800
sg8
F3600
sg9
(dp1875
g11
I1000
ssg12
F5200
sg13
F5000
sg14
F500
sg15
F750
sbag2
(g3
g4
NtRp1876
(dp1877
g7
F3800
sg8
F3600
sg9
(dp1878
g11
I1000
ssg12
F5400
sg13
F5200
sg14
F500
sg15
F750
sbag2
(g3
g4
NtRp1879
(dp1880
g7
F4000
sg8
F3800
sg9
(dp1881
g11
I1000
ssg12
F2600
sg13
F2400
sg14
F500
sg15
F750
sbag2
(g3
g4
NtRp1882
(dp1883
g7
F4000
sg8
F3800
sg9
(dp1884
g11
I1000
ssg12
F2800
sg13
F2600
sg14
F500
sg15
F750
sbag2
(g3
g4
NtRp1885
(dp1886
g7
F4000
sg8
F3800
sg9
(dp1887
g11
I1000
ssg12
F3000
sg13
F2800
sg14
F500
sg15
F750
sbag2
(g3
g4
NtRp1888
(dp1889
g7
F4000
sg8
F3800
sg9
(dp1890
g11
I1000
ssg12
F3200
sg13
F3000
sg14
F500
sg15
F750
sbag2
(g3
g4
NtRp1891
(dp1892
g7
F4000
sg8
F3800
sg9
(dp1893
g11
I1000
ssg12
F3400
sg13
F3200
sg14
F500
sg15
F750
sbag2
(g3
g4
NtRp1894
(dp1895
g7
F4000
sg8
F3800
sg9
(dp1896
g11
I1000
ssg12
F3600
sg13
F3400
sg14
F500
sg15
F750
sbag2
(g3
g4
NtRp1897
(dp1898
g7
F4000
sg8
F3800
sg9
(dp1899
g11
I1000
ssg12
F3800
sg13
F3600
sg14
F500
sg15
F750
sbag2
(g3
g4
NtRp1900
(dp1901
g7
F4000
sg8
F3800
sg9
(dp1902
g11
I1000
ssg12
F4000
sg13
F3800
sg14
F500
sg15
F750
sbag2
(g3
g4
NtRp1903
(dp1904
g7
F4000
sg8
F3800
sg9
(dp1905
g11
I1000
ssg12
F4200
sg13
F4000
sg14
F500
sg15
F750
sbag2
(g3
g4
NtRp1906
(dp1907
g7
F4000
sg8
F3800
sg9
(dp1908
g11
I1000
ssg12
F4400
sg13
F4200
sg14
F500
sg15
F750
sbag2
(g3
g4
NtRp1909
(dp1910
g7
F4000
sg8
F3800
sg9
(dp1911
g11
I1000
ssg12
F4600
sg13
F4400
sg14
F500
sg15
F750
sbag2
(g3
g4
NtRp1912
(dp1913
g7
F4000
sg8
F3800
sg9
(dp1914
g11
I1000
ssg12
F4800
sg13
F4600
sg14
F500
sg15
F750
sbag2
(g3
g4
NtRp1915
(dp1916
g7
F4000
sg8
F3800
sg9
(dp1917
g11
I1000
ssg12
F5000
sg13
F4800
sg14
F500
sg15
F750
sbag2
(g3
g4
NtRp1918
(dp1919
g7
F4000
sg8
F3800
sg9
(dp1920
g11
I1000
ssg12
F5200
sg13
F5000
sg14
F500
sg15
F750
sbag2
(g3
g4
NtRp1921
(dp1922
g7
F4000
sg8
F3800
sg9
(dp1923
g11
I1000
ssg12
F5400
sg13
F5200
sg14
F500
sg15
F750
sbag2
(g3
g4
NtRp1924
(dp1925
g7
F4200
sg8
F4000
sg9
(dp1926
g11
I1000
ssg12
F2800
sg13
F2600
sg14
F500
sg15
F750
sbag2
(g3
g4
NtRp1927
(dp1928
g7
F4200
sg8
F4000
sg9
(dp1929
g11
I1000
ssg12
F3000
sg13
F2800
sg14
F500
sg15
F750
sbag2
(g3
g4
NtRp1930
(dp1931
g7
F4200
sg8
F4000
sg9
(dp1932
g11
I1000
ssg12
F3200
sg13
F3000
sg14
F500
sg15
F750
sbag2
(g3
g4
NtRp1933
(dp1934
g7
F4200
sg8
F4000
sg9
(dp1935
g11
I1000
ssg12
F3400
sg13
F3200
sg14
F500
sg15
F750
sbag2
(g3
g4
NtRp1936
(dp1937
g7
F4200
sg8
F4000
sg9
(dp1938
g11
I1000
ssg12
F3600
sg13
F3400
sg14
F500
sg15
F750
sbag2
(g3
g4
NtRp1939
(dp1940
g7
F4200
sg8
F4000
sg9
(dp1941
g11
I1000
ssg12
F3800
sg13
F3600
sg14
F500
sg15
F750
sbag2
(g3
g4
NtRp1942
(dp1943
g7
F4200
sg8
F4000
sg9
(dp1944
g11
I1000
ssg12
F4000
sg13
F3800
sg14
F500
sg15
F750
sbag2
(g3
g4
NtRp1945
(dp1946
g7
F4200
sg8
F4000
sg9
(dp1947
g11
I1000
ssg12
F4200
sg13
F4000
sg14
F500
sg15
F750
sbag2
(g3
g4
NtRp1948
(dp1949
g7
F4200
sg8
F4000
sg9
(dp1950
g11
I1000
ssg12
F4400
sg13
F4200
sg14
F500
sg15
F750
sbag2
(g3
g4
NtRp1951
(dp1952
g7
F4200
sg8
F4000
sg9
(dp1953
g11
I1000
ssg12
F4600
sg13
F4400
sg14
F500
sg15
F750
sbag2
(g3
g4
NtRp1954
(dp1955
g7
F4200
sg8
F4000
sg9
(dp1956
g11
I1000
ssg12
F4800
sg13
F4600
sg14
F500
sg15
F750
sbag2
(g3
g4
NtRp1957
(dp1958
g7
F4200
sg8
F4000
sg9
(dp1959
g11
I1000
ssg12
F5000
sg13
F4800
sg14
F500
sg15
F750
sbag2
(g3
g4
NtRp1960
(dp1961
g7
F4200
sg8
F4000
sg9
(dp1962
g11
I1000
ssg12
F5200
sg13
F5000
sg14
F500
sg15
F750
sbag2
(g3
g4
NtRp1963
(dp1964
g7
F4200
sg8
F4000
sg9
(dp1965
g11
I1000
ssg12
F5400
sg13
F5200
sg14
F500
sg15
F750
sbag2
(g3
g4
NtRp1966
(dp1967
g7
F4200
sg8
F4000
sg9
(dp1968
g11
I1000
ssg12
F5600
sg13
F5400
sg14
F500
sg15
F750
sbag2
(g3
g4
NtRp1969
(dp1970
g7
F4400
sg8
F4200
sg9
(dp1971
g11
I1000
ssg12
F3200
sg13
F3000
sg14
F500
sg15
F750
sbag2
(g3
g4
NtRp1972
(dp1973
g7
F4400
sg8
F4200
sg9
(dp1974
g11
I1000
ssg12
F3400
sg13
F3200
sg14
F500
sg15
F750
sbag2
(g3
g4
NtRp1975
(dp1976
g7
F4400
sg8
F4200
sg9
(dp1977
g11
I1000
ssg12
F3600
sg13
F3400
sg14
F500
sg15
F750
sbag2
(g3
g4
NtRp1978
(dp1979
g7
F4400
sg8
F4200
sg9
(dp1980
g11
I1000
ssg12
F3800
sg13
F3600
sg14
F500
sg15
F750
sbag2
(g3
g4
NtRp1981
(dp1982
g7
F4400
sg8
F4200
sg9
(dp1983
g11
I1000
ssg12
F4000
sg13
F3800
sg14
F500
sg15
F750
sbag2
(g3
g4
NtRp1984
(dp1985
g7
F4400
sg8
F4200
sg9
(dp1986
g11
I1000
ssg12
F4200
sg13
F4000
sg14
F500
sg15
F750
sbag2
(g3
g4
NtRp1987
(dp1988
g7
F4400
sg8
F4200
sg9
(dp1989
g11
I1000
ssg12
F4400
sg13
F4200
sg14
F500
sg15
F750
sbag2
(g3
g4
NtRp1990
(dp1991
g7
F4400
sg8
F4200
sg9
(dp1992
g11
I1000
ssg12
F4600
sg13
F4400
sg14
F500
sg15
F750
sbag2
(g3
g4
NtRp1993
(dp1994
g7
F4400
sg8
F4200
sg9
(dp1995
g11
I1000
ssg12
F4800
sg13
F4600
sg14
F500
sg15
F750
sbag2
(g3
g4
NtRp1996
(dp1997
g7
F4400
sg8
F4200
sg9
(dp1998
g11
I1000
ssg12
F5000
sg13
F4800
sg14
F500
sg15
F750
sbag2
(g3
g4
NtRp1999
(dp2000
g7
F4400
sg8
F4200
sg9
(dp2001
g11
I1000
ssg12
F5200
sg13
F5000
sg14
F500
sg15
F750
sbag2
(g3
g4
NtRp2002
(dp2003
g7
F4400
sg8
F4200
sg9
(dp2004
g11
I1000
ssg12
F5400
sg13
F5200
sg14
F500
sg15
F750
sbag2
(g3
g4
NtRp2005
(dp2006
g7
F4400
sg8
F4200
sg9
(dp2007
g11
I1000
ssg12
F5600
sg13
F5400
sg14
F500
sg15
F750
sbag2
(g3
g4
NtRp2008
(dp2009
g7
F4400
sg8
F4200
sg9
(dp2010
g11
I1000
ssg12
F5800
sg13
F5600
sg14
F500
sg15
F750
sbag2
(g3
g4
NtRp2011
(dp2012
g7
F4600
sg8
F4400
sg9
(dp2013
g11
I1000
ssg12
F3400
sg13
F3200
sg14
F500
sg15
F750
sbag2
(g3
g4
NtRp2014
(dp2015
g7
F4600
sg8
F4400
sg9
(dp2016
g11
I1000
ssg12
F3600
sg13
F3400
sg14
F500
sg15
F750
sbag2
(g3
g4
NtRp2017
(dp2018
g7
F4600
sg8
F4400
sg9
(dp2019
g11
I1000
ssg12
F3800
sg13
F3600
sg14
F500
sg15
F750
sbag2
(g3
g4
NtRp2020
(dp2021
g7
F4600
sg8
F4400
sg9
(dp2022
g11
I1000
ssg12
F4000
sg13
F3800
sg14
F500
sg15
F750
sbag2
(g3
g4
NtRp2023
(dp2024
g7
F4600
sg8
F4400
sg9
(dp2025
g11
I1000
ssg12
F4200
sg13
F4000
sg14
F500
sg15
F750
sbag2
(g3
g4
NtRp2026
(dp2027
g7
F4600
sg8
F4400
sg9
(dp2028
g11
I1000
ssg12
F4400
sg13
F4200
sg14
F500
sg15
F750
sbag2
(g3
g4
NtRp2029
(dp2030
g7
F4600
sg8
F4400
sg9
(dp2031
g11
I1000
ssg12
F4600
sg13
F4400
sg14
F500
sg15
F750
sbag2
(g3
g4
NtRp2032
(dp2033
g7
F4600
sg8
F4400
sg9
(dp2034
g11
I1000
ssg12
F4800
sg13
F4600
sg14
F500
sg15
F750
sbag2
(g3
g4
NtRp2035
(dp2036
g7
F4600
sg8
F4400
sg9
(dp2037
g11
I1000
ssg12
F5000
sg13
F4800
sg14
F500
sg15
F750
sbag2
(g3
g4
NtRp2038
(dp2039
g7
F4600
sg8
F4400
sg9
(dp2040
g11
I1000
ssg12
F5200
sg13
F5000
sg14
F500
sg15
F750
sbag2
(g3
g4
NtRp2041
(dp2042
g7
F4600
sg8
F4400
sg9
(dp2043
g11
I1000
ssg12
F5400
sg13
F5200
sg14
F500
sg15
F750
sbag2
(g3
g4
NtRp2044
(dp2045
g7
F4600
sg8
F4400
sg9
(dp2046
g11
I1000
ssg12
F5600
sg13
F5400
sg14
F500
sg15
F750
sbag2
(g3
g4
NtRp2047
(dp2048
g7
F4600
sg8
F4400
sg9
(dp2049
g11
I1000
ssg12
F5800
sg13
F5600
sg14
F500
sg15
F750
sbag2
(g3
g4
NtRp2050
(dp2051
g7
F4600
sg8
F4400
sg9
(dp2052
g11
I1000
ssg12
F6000
sg13
F5800
sg14
F500
sg15
F750
sbag2
(g3
g4
NtRp2053
(dp2054
g7
F4800
sg8
F4600
sg9
(dp2055
g11
I1000
ssg12
F3600
sg13
F3400
sg14
F500
sg15
F750
sbag2
(g3
g4
NtRp2056
(dp2057
g7
F4800
sg8
F4600
sg9
(dp2058
g11
I1000
ssg12
F3800
sg13
F3600
sg14
F500
sg15
F750
sbag2
(g3
g4
NtRp2059
(dp2060
g7
F4800
sg8
F4600
sg9
(dp2061
g11
I1000
ssg12
F4000
sg13
F3800
sg14
F500
sg15
F750
sbag2
(g3
g4
NtRp2062
(dp2063
g7
F4800
sg8
F4600
sg9
(dp2064
g11
I1000
ssg12
F4200
sg13
F4000
sg14
F500
sg15
F750
sbag2
(g3
g4
NtRp2065
(dp2066
g7
F4800
sg8
F4600
sg9
(dp2067
g11
I1000
ssg12
F4400
sg13
F4200
sg14
F500
sg15
F750
sbag2
(g3
g4
NtRp2068
(dp2069
g7
F4800
sg8
F4600
sg9
(dp2070
g11
I1000
ssg12
F4600
sg13
F4400
sg14
F500
sg15
F750
sbag2
(g3
g4
NtRp2071
(dp2072
g7
F4800
sg8
F4600
sg9
(dp2073
g11
I1000
ssg12
F4800
sg13
F4600
sg14
F500
sg15
F750
sbag2
(g3
g4
NtRp2074
(dp2075
g7
F4800
sg8
F4600
sg9
(dp2076
g11
I1000
ssg12
F5000
sg13
F4800
sg14
F500
sg15
F750
sbag2
(g3
g4
NtRp2077
(dp2078
g7
F4800
sg8
F4600
sg9
(dp2079
g11
I1000
ssg12
F5200
sg13
F5000
sg14
F500
sg15
F750
sbag2
(g3
g4
NtRp2080
(dp2081
g7
F4800
sg8
F4600
sg9
(dp2082
g11
I1000
ssg12
F5400
sg13
F5200
sg14
F500
sg15
F750
sbag2
(g3
g4
NtRp2083
(dp2084
g7
F4800
sg8
F4600
sg9
(dp2085
g11
I1000
ssg12
F5600
sg13
F5400
sg14
F500
sg15
F750
sbag2
(g3
g4
NtRp2086
(dp2087
g7
F4800
sg8
F4600
sg9
(dp2088
g11
I1000
ssg12
F5800
sg13
F5600
sg14
F500
sg15
F750
sbag2
(g3
g4
NtRp2089
(dp2090
g7
F4800
sg8
F4600
sg9
(dp2091
g11
I1000
ssg12
F6000
sg13
F5800
sg14
F500
sg15
F750
sbag2
(g3
g4
NtRp2092
(dp2093
g7
F4800
sg8
F4600
sg9
(dp2094
g11
I1000
ssg12
F6200
sg13
F6000
sg14
F500
sg15
F750
sbag2
(g3
g4
NtRp2095
(dp2096
g7
F5000
sg8
F4800
sg9
(dp2097
g11
I1000
ssg12
F3800
sg13
F3600
sg14
F500
sg15
F750
sbag2
(g3
g4
NtRp2098
(dp2099
g7
F5000
sg8
F4800
sg9
(dp2100
g11
I1000
ssg12
F4000
sg13
F3800
sg14
F500
sg15
F750
sbag2
(g3
g4
NtRp2101
(dp2102
g7
F5000
sg8
F4800
sg9
(dp2103
g11
I1000
ssg12
F4200
sg13
F4000
sg14
F500
sg15
F750
sbag2
(g3
g4
NtRp2104
(dp2105
g7
F5000
sg8
F4800
sg9
(dp2106
g11
I1000
ssg12
F4400
sg13
F4200
sg14
F500
sg15
F750
sbag2
(g3
g4
NtRp2107
(dp2108
g7
F5000
sg8
F4800
sg9
(dp2109
g11
I1000
ssg12
F4600
sg13
F4400
sg14
F500
sg15
F750
sbag2
(g3
g4
NtRp2110
(dp2111
g7
F5000
sg8
F4800
sg9
(dp2112
g11
I1000
ssg12
F4800
sg13
F4600
sg14
F500
sg15
F750
sbag2
(g3
g4
NtRp2113
(dp2114
g7
F5000
sg8
F4800
sg9
(dp2115
g11
I1000
ssg12
F5000
sg13
F4800
sg14
F500
sg15
F750
sbag2
(g3
g4
NtRp2116
(dp2117
g7
F5000
sg8
F4800
sg9
(dp2118
g11
I1000
ssg12
F5200
sg13
F5000
sg14
F500
sg15
F750
sbag2
(g3
g4
NtRp2119
(dp2120
g7
F5000
sg8
F4800
sg9
(dp2121
g11
I1000
ssg12
F5400
sg13
F5200
sg14
F500
sg15
F750
sbag2
(g3
g4
NtRp2122
(dp2123
g7
F5000
sg8
F4800
sg9
(dp2124
g11
I1000
ssg12
F5600
sg13
F5400
sg14
F500
sg15
F750
sbag2
(g3
g4
NtRp2125
(dp2126
g7
F5000
sg8
F4800
sg9
(dp2127
g11
I1000
ssg12
F5800
sg13
F5600
sg14
F500
sg15
F750
sbag2
(g3
g4
NtRp2128
(dp2129
g7
F5000
sg8
F4800
sg9
(dp2130
g11
I1000
ssg12
F6000
sg13
F5800
sg14
F500
sg15
F750
sbag2
(g3
g4
NtRp2131
(dp2132
g7
F5000
sg8
F4800
sg9
(dp2133
g11
I1000
ssg12
F6200
sg13
F6000
sg14
F500
sg15
F750
sbag2
(g3
g4
NtRp2134
(dp2135
g7
F5000
sg8
F4800
sg9
(dp2136
g11
I1000
ssg12
F6400
sg13
F6200
sg14
F500
sg15
F750
sbag2
(g3
g4
NtRp2137
(dp2138
g7
F5200
sg8
F5000
sg9
(dp2139
g11
I1000
ssg12
F4000
sg13
F3800
sg14
F500
sg15
F750
sbag2
(g3
g4
NtRp2140
(dp2141
g7
F5200
sg8
F5000
sg9
(dp2142
g11
I1000
ssg12
F4400
sg13
F4200
sg14
F500
sg15
F750
sbag2
(g3
g4
NtRp2143
(dp2144
g7
F5200
sg8
F5000
sg9
(dp2145
g11
I1000
ssg12
F4600
sg13
F4400
sg14
F500
sg15
F750
sbag2
(g3
g4
NtRp2146
(dp2147
g7
F5200
sg8
F5000
sg9
(dp2148
g11
I1000
ssg12
F4800
sg13
F4600
sg14
F500
sg15
F750
sbag2
(g3
g4
NtRp2149
(dp2150
g7
F5200
sg8
F5000
sg9
(dp2151
g11
I1000
ssg12
F5000
sg13
F4800
sg14
F500
sg15
F750
sbag2
(g3
g4
NtRp2152
(dp2153
g7
F5200
sg8
F5000
sg9
(dp2154
g11
I1000
ssg12
F5200
sg13
F5000
sg14
F500
sg15
F750
sbag2
(g3
g4
NtRp2155
(dp2156
g7
F5200
sg8
F5000
sg9
(dp2157
g11
I1000
ssg12
F5400
sg13
F5200
sg14
F500
sg15
F750
sbag2
(g3
g4
NtRp2158
(dp2159
g7
F5200
sg8
F5000
sg9
(dp2160
g11
I1000
ssg12
F5600
sg13
F5400
sg14
F500
sg15
F750
sbag2
(g3
g4
NtRp2161
(dp2162
g7
F5200
sg8
F5000
sg9
(dp2163
g11
I1000
ssg12
F5800
sg13
F5600
sg14
F500
sg15
F750
sbag2
(g3
g4
NtRp2164
(dp2165
g7
F5200
sg8
F5000
sg9
(dp2166
g11
I1000
ssg12
F6000
sg13
F5800
sg14
F500
sg15
F750
sbag2
(g3
g4
NtRp2167
(dp2168
g7
F5200
sg8
F5000
sg9
(dp2169
g11
I1000
ssg12
F6200
sg13
F6000
sg14
F500
sg15
F750
sbag2
(g3
g4
NtRp2170
(dp2171
g7
F5200
sg8
F5000
sg9
(dp2172
g11
I1000
ssg12
F6400
sg13
F6200
sg14
F500
sg15
F750
sbag2
(g3
g4
NtRp2173
(dp2174
g7
F5200
sg8
F5000
sg9
(dp2175
g11
I1000
ssg12
F6600
sg13
F6400
sg14
F500
sg15
F750
sbag2
(g3
g4
NtRp2176
(dp2177
g7
F5400
sg8
F5200
sg9
(dp2178
g11
I1000
ssg12
F4400
sg13
F4200
sg14
F500
sg15
F750
sbag2
(g3
g4
NtRp2179
(dp2180
g7
F5400
sg8
F5200
sg9
(dp2181
g11
I1000
ssg12
F4600
sg13
F4400
sg14
F500
sg15
F750
sbag2
(g3
g4
NtRp2182
(dp2183
g7
F5400
sg8
F5200
sg9
(dp2184
g11
I1000
ssg12
F4800
sg13
F4600
sg14
F500
sg15
F750
sbag2
(g3
g4
NtRp2185
(dp2186
g7
F5400
sg8
F5200
sg9
(dp2187
g11
I1000
ssg12
F5000
sg13
F4800
sg14
F500
sg15
F750
sbag2
(g3
g4
NtRp2188
(dp2189
g7
F5400
sg8
F5200
sg9
(dp2190
g11
I1000
ssg12
F5200
sg13
F5000
sg14
F500
sg15
F750
sbag2
(g3
g4
NtRp2191
(dp2192
g7
F5400
sg8
F5200
sg9
(dp2193
g11
I1000
ssg12
F5400
sg13
F5200
sg14
F500
sg15
F750
sbag2
(g3
g4
NtRp2194
(dp2195
g7
F5400
sg8
F5200
sg9
(dp2196
g11
I1000
ssg12
F5600
sg13
F5400
sg14
F500
sg15
F750
sbag2
(g3
g4
NtRp2197
(dp2198
g7
F5400
sg8
F5200
sg9
(dp2199
g11
I1000
ssg12
F5800
sg13
F5600
sg14
F500
sg15
F750
sbag2
(g3
g4
NtRp2200
(dp2201
g7
F5400
sg8
F5200
sg9
(dp2202
g11
I1000
ssg12
F6000
sg13
F5800
sg14
F500
sg15
F750
sbag2
(g3
g4
NtRp2203
(dp2204
g7
F5400
sg8
F5200
sg9
(dp2205
g11
I1000
ssg12
F6200
sg13
F6000
sg14
F500
sg15
F750
sbag2
(g3
g4
NtRp2206
(dp2207
g7
F5400
sg8
F5200
sg9
(dp2208
g11
I1000
ssg12
F6400
sg13
F6200
sg14
F500
sg15
F750
sbag2
(g3
g4
NtRp2209
(dp2210
g7
F5400
sg8
F5200
sg9
(dp2211
g11
I1000
ssg12
F6600
sg13
F6400
sg14
F500
sg15
F750
sbag2
(g3
g4
NtRp2212
(dp2213
g7
F5400
sg8
F5200
sg9
(dp2214
g11
I1000
ssg12
F6800
sg13
F6600
sg14
F500
sg15
F750
sbag2
(g3
g4
NtRp2215
(dp2216
g7
F5600
sg8
F5400
sg9
(dp2217
g11
I1000
ssg12
F4600
sg13
F4400
sg14
F500
sg15
F750
sbag2
(g3
g4
NtRp2218
(dp2219
g7
F5600
sg8
F5400
sg9
(dp2220
g11
I1000
ssg12
F4800
sg13
F4600
sg14
F500
sg15
F750
sbag2
(g3
g4
NtRp2221
(dp2222
g7
F5600
sg8
F5400
sg9
(dp2223
g11
I1000
ssg12
F5000
sg13
F4800
sg14
F500
sg15
F750
sbag2
(g3
g4
NtRp2224
(dp2225
g7
F5600
sg8
F5400
sg9
(dp2226
g11
I1000
ssg12
F5200
sg13
F5000
sg14
F500
sg15
F750
sbag2
(g3
g4
NtRp2227
(dp2228
g7
F5600
sg8
F5400
sg9
(dp2229
g11
I1000
ssg12
F5400
sg13
F5200
sg14
F500
sg15
F750
sbag2
(g3
g4
NtRp2230
(dp2231
g7
F5600
sg8
F5400
sg9
(dp2232
g11
I1000
ssg12
F5600
sg13
F5400
sg14
F500
sg15
F750
sbag2
(g3
g4
NtRp2233
(dp2234
g7
F5600
sg8
F5400
sg9
(dp2235
g11
I1000
ssg12
F5800
sg13
F5600
sg14
F500
sg15
F750
sbag2
(g3
g4
NtRp2236
(dp2237
g7
F5600
sg8
F5400
sg9
(dp2238
g11
I1000
ssg12
F6000
sg13
F5800
sg14
F500
sg15
F750
sbag2
(g3
g4
NtRp2239
(dp2240
g7
F5600
sg8
F5400
sg9
(dp2241
g11
I1000
ssg12
F6200
sg13
F6000
sg14
F500
sg15
F750
sbag2
(g3
g4
NtRp2242
(dp2243
g7
F5600
sg8
F5400
sg9
(dp2244
g11
I1000
ssg12
F6400
sg13
F6200
sg14
F500
sg15
F750
sbag2
(g3
g4
NtRp2245
(dp2246
g7
F5600
sg8
F5400
sg9
(dp2247
g11
I1000
ssg12
F6600
sg13
F6400
sg14
F500
sg15
F750
sbag2
(g3
g4
NtRp2248
(dp2249
g7
F5600
sg8
F5400
sg9
(dp2250
g11
I1000
ssg12
F6800
sg13
F6600
sg14
F500
sg15
F750
sbag2
(g3
g4
NtRp2251
(dp2252
g7
F5600
sg8
F5400
sg9
(dp2253
g11
I1000
ssg12
F7000
sg13
F6800
sg14
F500
sg15
F750
sbag2
(g3
g4
NtRp2254
(dp2255
g7
F5800
sg8
F5600
sg9
(dp2256
g11
I1000
ssg12
F4800
sg13
F4600
sg14
F500
sg15
F750
sbag2
(g3
g4
NtRp2257
(dp2258
g7
F5800
sg8
F5600
sg9
(dp2259
g11
I1000
ssg12
F5000
sg13
F4800
sg14
F500
sg15
F750
sbag2
(g3
g4
NtRp2260
(dp2261
g7
F5800
sg8
F5600
sg9
(dp2262
g11
I1000
ssg12
F5200
sg13
F5000
sg14
F500
sg15
F750
sbag2
(g3
g4
NtRp2263
(dp2264
g7
F5800
sg8
F5600
sg9
(dp2265
g11
I1000
ssg12
F5400
sg13
F5200
sg14
F500
sg15
F750
sbag2
(g3
g4
NtRp2266
(dp2267
g7
F5800
sg8
F5600
sg9
(dp2268
g11
I1000
ssg12
F5600
sg13
F5400
sg14
F500
sg15
F750
sbag2
(g3
g4
NtRp2269
(dp2270
g7
F5800
sg8
F5600
sg9
(dp2271
g11
I1000
ssg12
F5800
sg13
F5600
sg14
F500
sg15
F750
sbag2
(g3
g4
NtRp2272
(dp2273
g7
F5800
sg8
F5600
sg9
(dp2274
g11
I1000
ssg12
F6000
sg13
F5800
sg14
F500
sg15
F750
sbag2
(g3
g4
NtRp2275
(dp2276
g7
F5800
sg8
F5600
sg9
(dp2277
g11
I1000
ssg12
F6200
sg13
F6000
sg14
F500
sg15
F750
sbag2
(g3
g4
NtRp2278
(dp2279
g7
F5800
sg8
F5600
sg9
(dp2280
g11
I1000
ssg12
F6400
sg13
F6200
sg14
F500
sg15
F750
sbag2
(g3
g4
NtRp2281
(dp2282
g7
F5800
sg8
F5600
sg9
(dp2283
g11
I1000
ssg12
F6600
sg13
F6400
sg14
F500
sg15
F750
sbag2
(g3
g4
NtRp2284
(dp2285
g7
F5800
sg8
F5600
sg9
(dp2286
g11
I1000
ssg12
F6800
sg13
F6600
sg14
F500
sg15
F750
sbag2
(g3
g4
NtRp2287
(dp2288
g7
F5800
sg8
F5600
sg9
(dp2289
g11
I1000
ssg12
F7000
sg13
F6800
sg14
F500
sg15
F750
sbag2
(g3
g4
NtRp2290
(dp2291
g7
F6000
sg8
F5800
sg9
(dp2292
g11
I1000
ssg12
F5000
sg13
F4800
sg14
F500
sg15
F750
sbag2
(g3
g4
NtRp2293
(dp2294
g7
F6000
sg8
F5800
sg9
(dp2295
g11
I1000
ssg12
F5200
sg13
F5000
sg14
F500
sg15
F750
sbag2
(g3
g4
NtRp2296
(dp2297
g7
F6000
sg8
F5800
sg9
(dp2298
g11
I1000
ssg12
F5400
sg13
F5200
sg14
F500
sg15
F750
sbag2
(g3
g4
NtRp2299
(dp2300
g7
F6000
sg8
F5800
sg9
(dp2301
g11
I1000
ssg12
F5600
sg13
F5400
sg14
F500
sg15
F750
sbag2
(g3
g4
NtRp2302
(dp2303
g7
F6000
sg8
F5800
sg9
(dp2304
g11
I1000
ssg12
F5800
sg13
F5600
sg14
F500
sg15
F750
sbag2
(g3
g4
NtRp2305
(dp2306
g7
F6000
sg8
F5800
sg9
(dp2307
g11
I1000
ssg12
F6000
sg13
F5800
sg14
F500
sg15
F750
sbag2
(g3
g4
NtRp2308
(dp2309
g7
F6000
sg8
F5800
sg9
(dp2310
g11
I1000
ssg12
F6200
sg13
F6000
sg14
F500
sg15
F750
sbag2
(g3
g4
NtRp2311
(dp2312
g7
F6000
sg8
F5800
sg9
(dp2313
g11
I1000
ssg12
F6400
sg13
F6200
sg14
F500
sg15
F750
sbag2
(g3
g4
NtRp2314
(dp2315
g7
F6000
sg8
F5800
sg9
(dp2316
g11
I1000
ssg12
F6600
sg13
F6400
sg14
F500
sg15
F750
sbag2
(g3
g4
NtRp2317
(dp2318
g7
F6000
sg8
F5800
sg9
(dp2319
g11
I1000
ssg12
F6800
sg13
F6600
sg14
F500
sg15
F750
sbag2
(g3
g4
NtRp2320
(dp2321
g7
F6200
sg8
F6000
sg9
(dp2322
g11
I1000
ssg12
F5200
sg13
F5000
sg14
F500
sg15
F750
sbag2
(g3
g4
NtRp2323
(dp2324
g7
F6200
sg8
F6000
sg9
(dp2325
g11
I1000
ssg12
F5400
sg13
F5200
sg14
F500
sg15
F750
sbag2
(g3
g4
NtRp2326
(dp2327
g7
F6200
sg8
F6000
sg9
(dp2328
g11
I1000
ssg12
F5600
sg13
F5400
sg14
F500
sg15
F750
sbag2
(g3
g4
NtRp2329
(dp2330
g7
F6200
sg8
F6000
sg9
(dp2331
g11
I1000
ssg12
F5800
sg13
F5600
sg14
F500
sg15
F750
sbag2
(g3
g4
NtRp2332
(dp2333
g7
F6200
sg8
F6000
sg9
(dp2334
g11
I1000
ssg12
F6000
sg13
F5800
sg14
F500
sg15
F750
sbag2
(g3
g4
NtRp2335
(dp2336
g7
F6200
sg8
F6000
sg9
(dp2337
g11
I1000
ssg12
F6200
sg13
F6000
sg14
F500
sg15
F750
sbag2
(g3
g4
NtRp2338
(dp2339
g7
F6200
sg8
F6000
sg9
(dp2340
g11
I1000
ssg12
F6400
sg13
F6200
sg14
F500
sg15
F750
sbag2
(g3
g4
NtRp2341
(dp2342
g7
F6200
sg8
F6000
sg9
(dp2343
g11
I1000
ssg12
F6600
sg13
F6400
sg14
F500
sg15
F750
sbag2
(g3
g4
NtRp2344
(dp2345
g7
F6200
sg8
F6000
sg9
(dp2346
g11
I1000
ssg12
F6800
sg13
F6600
sg14
F500
sg15
F750
sbag2
(g3
g4
NtRp2347
(dp2348
g7
F6400
sg8
F6200
sg9
(dp2349
g11
I1000
ssg12
F5600
sg13
F5400
sg14
F500
sg15
F750
sbag2
(g3
g4
NtRp2350
(dp2351
g7
F6400
sg8
F6200
sg9
(dp2352
g11
I1000
ssg12
F5800
sg13
F5600
sg14
F500
sg15
F750
sbag2
(g3
g4
NtRp2353
(dp2354
g7
F6400
sg8
F6200
sg9
(dp2355
g11
I1000
ssg12
F6000
sg13
F5800
sg14
F500
sg15
F750
sbag2
(g3
g4
NtRp2356
(dp2357
g7
F6400
sg8
F6200
sg9
(dp2358
g11
I1000
ssg12
F6200
sg13
F6000
sg14
F500
sg15
F750
sbag2
(g3
g4
NtRp2359
(dp2360
g7
F6400
sg8
F6200
sg9
(dp2361
g11
I1000
ssg12
F6400
sg13
F6200
sg14
F500
sg15
F750
sbag2
(g3
g4
NtRp2362
(dp2363
g7
F6400
sg8
F6200
sg9
(dp2364
g11
I1000
ssg12
F6600
sg13
F6400
sg14
F500
sg15
F750
sbag2
(g3
g4
NtRp2365
(dp2366
g7
F6400
sg8
F6200
sg9
(dp2367
g11
I1000
ssg12
F6800
sg13
F6600
sg14
F500
sg15
F750
sbag2
(g3
g4
NtRp2368
(dp2369
g7
F6400
sg8
F6200
sg9
(dp2370
g11
I1000
ssg12
F7000
sg13
F6800
sg14
F500
sg15
F750
sbag2
(g3
g4
NtRp2371
(dp2372
g7
F6400
sg8
F6200
sg9
(dp2373
g11
I1000
ssg12
F7200
sg13
F7000
sg14
F500
sg15
F750
sbag2
(g3
g4
NtRp2374
(dp2375
g7
F6600
sg8
F6400
sg9
(dp2376
g11
I1000
ssg12
F5800
sg13
F5600
sg14
F500
sg15
F750
sbag2
(g3
g4
NtRp2377
(dp2378
g7
F6600
sg8
F6400
sg9
(dp2379
g11
I1000
ssg12
F6000
sg13
F5800
sg14
F500
sg15
F750
sbag2
(g3
g4
NtRp2380
(dp2381
g7
F6600
sg8
F6400
sg9
(dp2382
g11
I1000
ssg12
F6200
sg13
F6000
sg14
F500
sg15
F750
sbag2
(g3
g4
NtRp2383
(dp2384
g7
F6600
sg8
F6400
sg9
(dp2385
g11
I1000
ssg12
F6600
sg13
F6400
sg14
F500
sg15
F750
sbag2
(g3
g4
NtRp2386
(dp2387
g7
F6600
sg8
F6400
sg9
(dp2388
g11
I1000
ssg12
F6800
sg13
F6600
sg14
F500
sg15
F750
sbag2
(g3
g4
NtRp2389
(dp2390
g7
F6600
sg8
F6400
sg9
(dp2391
g11
I1000
ssg12
F7000
sg13
F6800
sg14
F500
sg15
F750
sbag2
(g3
g4
NtRp2392
(dp2393
g7
F6600
sg8
F6400
sg9
(dp2394
g11
I1000
ssg12
F7200
sg13
F7000
sg14
F500
sg15
F750
sbag2
(g3
g4
NtRp2395
(dp2396
g7
F6800
sg8
F6600
sg9
(dp2397
g11
I1000
ssg12
F7000
sg13
F6800
sg14
F500
sg15
F750
sbag2
(g3
g4
NtRp2398
(dp2399
g7
F6800
sg8
F6600
sg9
(dp2400
g11
I1000
ssg12
F7200
sg13
F7000
sg14
F500
sg15
F750
sbag2
(g3
g4
NtRp2401
(dp2402
g7
F6800
sg8
F6600
sg9
(dp2403
g11
I1000
ssg12
F7400
sg13
F7200
sg14
F500
sg15
F750
sbag2
(g3
g4
NtRp2404
(dp2405
g7
F7000
sg8
F6800
sg9
(dp2406
g11
I1000
ssg12
F7000
sg13
F6800
sg14
F500
sg15
F750
sbag2
(g3
g4
NtRp2407
(dp2408
g7
F7000
sg8
F6800
sg9
(dp2409
g11
I1000
ssg12
F7200
sg13
F7000
sg14
F500
sg15
F750
sbag2
(g3
g4
NtRp2410
(dp2411
g7
F7200
sg8
F7000
sg9
(dp2412
g11
I1000
ssg12
F7400
sg13
F7200
sg14
F500
sg15
F750
sbag2
(g3
g4
NtRp2413
(dp2414
g7
F2600
sg8
F2400
sg9
(dp2415
g11
I1000
ssg12
F3600
sg13
F3400
sg14
F750
sg15
F1000
sbag2
(g3
g4
NtRp2416
(dp2417
g7
F2600
sg8
F2400
sg9
(dp2418
g11
I1000
ssg12
F3800
sg13
F3600
sg14
F750
sg15
F1000
sbag2
(g3
g4
NtRp2419
(dp2420
g7
F2600
sg8
F2400
sg9
(dp2421
g11
I1000
ssg12
F4000
sg13
F3800
sg14
F750
sg15
F1000
sbag2
(g3
g4
NtRp2422
(dp2423
g7
F2800
sg8
F2600
sg9
(dp2424
g11
I1000
ssg12
F3200
sg13
F3000
sg14
F750
sg15
F1000
sbag2
(g3
g4
NtRp2425
(dp2426
g7
F2800
sg8
F2600
sg9
(dp2427
g11
I1000
ssg12
F3400
sg13
F3200
sg14
F750
sg15
F1000
sbag2
(g3
g4
NtRp2428
(dp2429
g7
F2800
sg8
F2600
sg9
(dp2430
g11
I1000
ssg12
F3600
sg13
F3400
sg14
F750
sg15
F1000
sbag2
(g3
g4
NtRp2431
(dp2432
g7
F2800
sg8
F2600
sg9
(dp2433
g11
I1000
ssg12
F3800
sg13
F3600
sg14
F750
sg15
F1000
sbag2
(g3
g4
NtRp2434
(dp2435
g7
F2800
sg8
F2600
sg9
(dp2436
g11
I1000
ssg12
F4000
sg13
F3800
sg14
F750
sg15
F1000
sbag2
(g3
g4
NtRp2437
(dp2438
g7
F2800
sg8
F2600
sg9
(dp2439
g11
I1000
ssg12
F4200
sg13
F4000
sg14
F750
sg15
F1000
sbag2
(g3
g4
NtRp2440
(dp2441
g7
F3000
sg8
F2800
sg9
(dp2442
g11
I1000
ssg12
F3000
sg13
F2800
sg14
F750
sg15
F1000
sbag2
(g3
g4
NtRp2443
(dp2444
g7
F3000
sg8
F2800
sg9
(dp2445
g11
I1000
ssg12
F3200
sg13
F3000
sg14
F750
sg15
F1000
sbag2
(g3
g4
NtRp2446
(dp2447
g7
F3000
sg8
F2800
sg9
(dp2448
g11
I1000
ssg12
F3400
sg13
F3200
sg14
F750
sg15
F1000
sbag2
(g3
g4
NtRp2449
(dp2450
g7
F3000
sg8
F2800
sg9
(dp2451
g11
I1000
ssg12
F3600
sg13
F3400
sg14
F750
sg15
F1000
sbag2
(g3
g4
NtRp2452
(dp2453
g7
F3000
sg8
F2800
sg9
(dp2454
g11
I1000
ssg12
F3800
sg13
F3600
sg14
F750
sg15
F1000
sbag2
(g3
g4
NtRp2455
(dp2456
g7
F3000
sg8
F2800
sg9
(dp2457
g11
I1000
ssg12
F4000
sg13
F3800
sg14
F750
sg15
F1000
sbag2
(g3
g4
NtRp2458
(dp2459
g7
F3000
sg8
F2800
sg9
(dp2460
g11
I1000
ssg12
F4200
sg13
F4000
sg14
F750
sg15
F1000
sbag2
(g3
g4
NtRp2461
(dp2462
g7
F3000
sg8
F2800
sg9
(dp2463
g11
I1000
ssg12
F4400
sg13
F4200
sg14
F750
sg15
F1000
sbag2
(g3
g4
NtRp2464
(dp2465
g7
F3200
sg8
F3000
sg9
(dp2466
g11
I1000
ssg12
F2800
sg13
F2600
sg14
F750
sg15
F1000
sbag2
(g3
g4
NtRp2467
(dp2468
g7
F3200
sg8
F3000
sg9
(dp2469
g11
I1000
ssg12
F3000
sg13
F2800
sg14
F750
sg15
F1000
sbag2
(g3
g4
NtRp2470
(dp2471
g7
F3200
sg8
F3000
sg9
(dp2472
g11
I1000
ssg12
F3200
sg13
F3000
sg14
F750
sg15
F1000
sbag2
(g3
g4
NtRp2473
(dp2474
g7
F3200
sg8
F3000
sg9
(dp2475
g11
I1000
ssg12
F3400
sg13
F3200
sg14
F750
sg15
F1000
sbag2
(g3
g4
NtRp2476
(dp2477
g7
F3200
sg8
F3000
sg9
(dp2478
g11
I1000
ssg12
F3600
sg13
F3400
sg14
F750
sg15
F1000
sbag2
(g3
g4
NtRp2479
(dp2480
g7
F3200
sg8
F3000
sg9
(dp2481
g11
I1000
ssg12
F3800
sg13
F3600
sg14
F750
sg15
F1000
sbag2
(g3
g4
NtRp2482
(dp2483
g7
F3200
sg8
F3000
sg9
(dp2484
g11
I1000
ssg12
F4000
sg13
F3800
sg14
F750
sg15
F1000
sbag2
(g3
g4
NtRp2485
(dp2486
g7
F3200
sg8
F3000
sg9
(dp2487
g11
I1000
ssg12
F4200
sg13
F4000
sg14
F750
sg15
F1000
sbag2
(g3
g4
NtRp2488
(dp2489
g7
F3200
sg8
F3000
sg9
(dp2490
g11
I1000
ssg12
F4400
sg13
F4200
sg14
F750
sg15
F1000
sbag2
(g3
g4
NtRp2491
(dp2492
g7
F3200
sg8
F3000
sg9
(dp2493
g11
I1000
ssg12
F4600
sg13
F4400
sg14
F750
sg15
F1000
sbag2
(g3
g4
NtRp2494
(dp2495
g7
F3400
sg8
F3200
sg9
(dp2496
g11
I1000
ssg12
F2600
sg13
F2400
sg14
F750
sg15
F1000
sbag2
(g3
g4
NtRp2497
(dp2498
g7
F3400
sg8
F3200
sg9
(dp2499
g11
I1000
ssg12
F2800
sg13
F2600
sg14
F750
sg15
F1000
sbag2
(g3
g4
NtRp2500
(dp2501
g7
F3400
sg8
F3200
sg9
(dp2502
g11
I1000
ssg12
F3000
sg13
F2800
sg14
F750
sg15
F1000
sbag2
(g3
g4
NtRp2503
(dp2504
g7
F3400
sg8
F3200
sg9
(dp2505
g11
I1000
ssg12
F3200
sg13
F3000
sg14
F750
sg15
F1000
sbag2
(g3
g4
NtRp2506
(dp2507
g7
F3400
sg8
F3200
sg9
(dp2508
g11
I1000
ssg12
F3400
sg13
F3200
sg14
F750
sg15
F1000
sbag2
(g3
g4
NtRp2509
(dp2510
g7
F3400
sg8
F3200
sg9
(dp2511
g11
I1000
ssg12
F3600
sg13
F3400
sg14
F750
sg15
F1000
sbag2
(g3
g4
NtRp2512
(dp2513
g7
F3400
sg8
F3200
sg9
(dp2514
g11
I1000
ssg12
F3800
sg13
F3600
sg14
F750
sg15
F1000
sbag2
(g3
g4
NtRp2515
(dp2516
g7
F3400
sg8
F3200
sg9
(dp2517
g11
I1000
ssg12
F4000
sg13
F3800
sg14
F750
sg15
F1000
sbag2
(g3
g4
NtRp2518
(dp2519
g7
F3400
sg8
F3200
sg9
(dp2520
g11
I1000
ssg12
F4200
sg13
F4000
sg14
F750
sg15
F1000
sbag2
(g3
g4
NtRp2521
(dp2522
g7
F3400
sg8
F3200
sg9
(dp2523
g11
I1000
ssg12
F4400
sg13
F4200
sg14
F750
sg15
F1000
sbag2
(g3
g4
NtRp2524
(dp2525
g7
F3400
sg8
F3200
sg9
(dp2526
g11
I1000
ssg12
F4600
sg13
F4400
sg14
F750
sg15
F1000
sbag2
(g3
g4
NtRp2527
(dp2528
g7
F3400
sg8
F3200
sg9
(dp2529
g11
I1000
ssg12
F4800
sg13
F4600
sg14
F750
sg15
F1000
sbag2
(g3
g4
NtRp2530
(dp2531
g7
F3600
sg8
F3400
sg9
(dp2532
g11
I1000
ssg12
F2600
sg13
F2400
sg14
F750
sg15
F1000
sbag2
(g3
g4
NtRp2533
(dp2534
g7
F3600
sg8
F3400
sg9
(dp2535
g11
I1000
ssg12
F2800
sg13
F2600
sg14
F750
sg15
F1000
sbag2
(g3
g4
NtRp2536
(dp2537
g7
F3600
sg8
F3400
sg9
(dp2538
g11
I1000
ssg12
F3000
sg13
F2800
sg14
F750
sg15
F1000
sbag2
(g3
g4
NtRp2539
(dp2540
g7
F3600
sg8
F3400
sg9
(dp2541
g11
I1000
ssg12
F3200
sg13
F3000
sg14
F750
sg15
F1000
sbag2
(g3
g4
NtRp2542
(dp2543
g7
F3600
sg8
F3400
sg9
(dp2544
g11
I1000
ssg12
F3400
sg13
F3200
sg14
F750
sg15
F1000
sbag2
(g3
g4
NtRp2545
(dp2546
g7
F3600
sg8
F3400
sg9
(dp2547
g11
I1000
ssg12
F3600
sg13
F3400
sg14
F750
sg15
F1000
sbag2
(g3
g4
NtRp2548
(dp2549
g7
F3600
sg8
F3400
sg9
(dp2550
g11
I1000
ssg12
F3800
sg13
F3600
sg14
F750
sg15
F1000
sbag2
(g3
g4
NtRp2551
(dp2552
g7
F3600
sg8
F3400
sg9
(dp2553
g11
I1000
ssg12
F4000
sg13
F3800
sg14
F750
sg15
F1000
sbag2
(g3
g4
NtRp2554
(dp2555
g7
F3600
sg8
F3400
sg9
(dp2556
g11
I1000
ssg12
F4200
sg13
F4000
sg14
F750
sg15
F1000
sbag2
(g3
g4
NtRp2557
(dp2558
g7
F3600
sg8
F3400
sg9
(dp2559
g11
I1000
ssg12
F4400
sg13
F4200
sg14
F750
sg15
F1000
sbag2
(g3
g4
NtRp2560
(dp2561
g7
F3600
sg8
F3400
sg9
(dp2562
g11
I1000
ssg12
F4600
sg13
F4400
sg14
F750
sg15
F1000
sbag2
(g3
g4
NtRp2563
(dp2564
g7
F3600
sg8
F3400
sg9
(dp2565
g11
I1000
ssg12
F4800
sg13
F4600
sg14
F750
sg15
F1000
sbag2
(g3
g4
NtRp2566
(dp2567
g7
F3600
sg8
F3400
sg9
(dp2568
g11
I1000
ssg12
F5000
sg13
F4800
sg14
F750
sg15
F1000
sbag2
(g3
g4
NtRp2569
(dp2570
g7
F3800
sg8
F3600
sg9
(dp2571
g11
I1000
ssg12
F2600
sg13
F2400
sg14
F750
sg15
F1000
sbag2
(g3
g4
NtRp2572
(dp2573
g7
F3800
sg8
F3600
sg9
(dp2574
g11
I1000
ssg12
F2800
sg13
F2600
sg14
F750
sg15
F1000
sbag2
(g3
g4
NtRp2575
(dp2576
g7
F3800
sg8
F3600
sg9
(dp2577
g11
I1000
ssg12
F3000
sg13
F2800
sg14
F750
sg15
F1000
sbag2
(g3
g4
NtRp2578
(dp2579
g7
F3800
sg8
F3600
sg9
(dp2580
g11
I1000
ssg12
F3200
sg13
F3000
sg14
F750
sg15
F1000
sbag2
(g3
g4
NtRp2581
(dp2582
g7
F3800
sg8
F3600
sg9
(dp2583
g11
I1000
ssg12
F3400
sg13
F3200
sg14
F750
sg15
F1000
sbag2
(g3
g4
NtRp2584
(dp2585
g7
F3800
sg8
F3600
sg9
(dp2586
g11
I1000
ssg12
F3600
sg13
F3400
sg14
F750
sg15
F1000
sbag2
(g3
g4
NtRp2587
(dp2588
g7
F3800
sg8
F3600
sg9
(dp2589
g11
I1000
ssg12
F3800
sg13
F3600
sg14
F750
sg15
F1000
sbag2
(g3
g4
NtRp2590
(dp2591
g7
F3800
sg8
F3600
sg9
(dp2592
g11
I1000
ssg12
F4000
sg13
F3800
sg14
F750
sg15
F1000
sbag2
(g3
g4
NtRp2593
(dp2594
g7
F3800
sg8
F3600
sg9
(dp2595
g11
I1000
ssg12
F4200
sg13
F4000
sg14
F750
sg15
F1000
sbag2
(g3
g4
NtRp2596
(dp2597
g7
F3800
sg8
F3600
sg9
(dp2598
g11
I1000
ssg12
F4400
sg13
F4200
sg14
F750
sg15
F1000
sbag2
(g3
g4
NtRp2599
(dp2600
g7
F3800
sg8
F3600
sg9
(dp2601
g11
I1000
ssg12
F4600
sg13
F4400
sg14
F750
sg15
F1000
sbag2
(g3
g4
NtRp2602
(dp2603
g7
F3800
sg8
F3600
sg9
(dp2604
g11
I1000
ssg12
F4800
sg13
F4600
sg14
F750
sg15
F1000
sbag2
(g3
g4
NtRp2605
(dp2606
g7
F3800
sg8
F3600
sg9
(dp2607
g11
I1000
ssg12
F5000
sg13
F4800
sg14
F750
sg15
F1000
sbag2
(g3
g4
NtRp2608
(dp2609
g7
F3800
sg8
F3600
sg9
(dp2610
g11
I1000
ssg12
F5200
sg13
F5000
sg14
F750
sg15
F1000
sbag2
(g3
g4
NtRp2611
(dp2612
g7
F3800
sg8
F3600
sg9
(dp2613
g11
I1000
ssg12
F5400
sg13
F5200
sg14
F750
sg15
F1000
sbag2
(g3
g4
NtRp2614
(dp2615
g7
F4000
sg8
F3800
sg9
(dp2616
g11
I1000
ssg12
F2800
sg13
F2600
sg14
F750
sg15
F1000
sbag2
(g3
g4
NtRp2617
(dp2618
g7
F4000
sg8
F3800
sg9
(dp2619
g11
I1000
ssg12
F3000
sg13
F2800
sg14
F750
sg15
F1000
sbag2
(g3
g4
NtRp2620
(dp2621
g7
F4000
sg8
F3800
sg9
(dp2622
g11
I1000
ssg12
F3200
sg13
F3000
sg14
F750
sg15
F1000
sbag2
(g3
g4
NtRp2623
(dp2624
g7
F4000
sg8
F3800
sg9
(dp2625
g11
I1000
ssg12
F3400
sg13
F3200
sg14
F750
sg15
F1000
sbag2
(g3
g4
NtRp2626
(dp2627
g7
F4000
sg8
F3800
sg9
(dp2628
g11
I1000
ssg12
F3600
sg13
F3400
sg14
F750
sg15
F1000
sbag2
(g3
g4
NtRp2629
(dp2630
g7
F4000
sg8
F3800
sg9
(dp2631
g11
I1000
ssg12
F3800
sg13
F3600
sg14
F750
sg15
F1000
sbag2
(g3
g4
NtRp2632
(dp2633
g7
F4000
sg8
F3800
sg9
(dp2634
g11
I1000
ssg12
F4000
sg13
F3800
sg14
F750
sg15
F1000
sbag2
(g3
g4
NtRp2635
(dp2636
g7
F4000
sg8
F3800
sg9
(dp2637
g11
I1000
ssg12
F4200
sg13
F4000
sg14
F750
sg15
F1000
sbag2
(g3
g4
NtRp2638
(dp2639
g7
F4000
sg8
F3800
sg9
(dp2640
g11
I1000
ssg12
F4400
sg13
F4200
sg14
F750
sg15
F1000
sbag2
(g3
g4
NtRp2641
(dp2642
g7
F4000
sg8
F3800
sg9
(dp2643
g11
I1000
ssg12
F4600
sg13
F4400
sg14
F750
sg15
F1000
sbag2
(g3
g4
NtRp2644
(dp2645
g7
F4000
sg8
F3800
sg9
(dp2646
g11
I1000
ssg12
F4800
sg13
F4600
sg14
F750
sg15
F1000
sbag2
(g3
g4
NtRp2647
(dp2648
g7
F4000
sg8
F3800
sg9
(dp2649
g11
I1000
ssg12
F5000
sg13
F4800
sg14
F750
sg15
F1000
sbag2
(g3
g4
NtRp2650
(dp2651
g7
F4000
sg8
F3800
sg9
(dp2652
g11
I1000
ssg12
F5200
sg13
F5000
sg14
F750
sg15
F1000
sbag2
(g3
g4
NtRp2653
(dp2654
g7
F4000
sg8
F3800
sg9
(dp2655
g11
I1000
ssg12
F5400
sg13
F5200
sg14
F750
sg15
F1000
sbag2
(g3
g4
NtRp2656
(dp2657
g7
F4000
sg8
F3800
sg9
(dp2658
g11
I1000
ssg12
F5600
sg13
F5400
sg14
F750
sg15
F1000
sbag2
(g3
g4
NtRp2659
(dp2660
g7
F4200
sg8
F4000
sg9
(dp2661
g11
I1000
ssg12
F3000
sg13
F2800
sg14
F750
sg15
F1000
sbag2
(g3
g4
NtRp2662
(dp2663
g7
F4200
sg8
F4000
sg9
(dp2664
g11
I1000
ssg12
F3200
sg13
F3000
sg14
F750
sg15
F1000
sbag2
(g3
g4
NtRp2665
(dp2666
g7
F4200
sg8
F4000
sg9
(dp2667
g11
I1000
ssg12
F3400
sg13
F3200
sg14
F750
sg15
F1000
sbag2
(g3
g4
NtRp2668
(dp2669
g7
F4200
sg8
F4000
sg9
(dp2670
g11
I1000
ssg12
F3600
sg13
F3400
sg14
F750
sg15
F1000
sbag2
(g3
g4
NtRp2671
(dp2672
g7
F4200
sg8
F4000
sg9
(dp2673
g11
I1000
ssg12
F3800
sg13
F3600
sg14
F750
sg15
F1000
sbag2
(g3
g4
NtRp2674
(dp2675
g7
F4200
sg8
F4000
sg9
(dp2676
g11
I1000
ssg12
F4000
sg13
F3800
sg14
F750
sg15
F1000
sbag2
(g3
g4
NtRp2677
(dp2678
g7
F4200
sg8
F4000
sg9
(dp2679
g11
I1000
ssg12
F4200
sg13
F4000
sg14
F750
sg15
F1000
sbag2
(g3
g4
NtRp2680
(dp2681
g7
F4200
sg8
F4000
sg9
(dp2682
g11
I1000
ssg12
F4400
sg13
F4200
sg14
F750
sg15
F1000
sbag2
(g3
g4
NtRp2683
(dp2684
g7
F4200
sg8
F4000
sg9
(dp2685
g11
I1000
ssg12
F4600
sg13
F4400
sg14
F750
sg15
F1000
sbag2
(g3
g4
NtRp2686
(dp2687
g7
F4200
sg8
F4000
sg9
(dp2688
g11
I1000
ssg12
F4800
sg13
F4600
sg14
F750
sg15
F1000
sbag2
(g3
g4
NtRp2689
(dp2690
g7
F4200
sg8
F4000
sg9
(dp2691
g11
I1000
ssg12
F5000
sg13
F4800
sg14
F750
sg15
F1000
sbag2
(g3
g4
NtRp2692
(dp2693
g7
F4200
sg8
F4000
sg9
(dp2694
g11
I1000
ssg12
F5200
sg13
F5000
sg14
F750
sg15
F1000
sbag2
(g3
g4
NtRp2695
(dp2696
g7
F4200
sg8
F4000
sg9
(dp2697
g11
I1000
ssg12
F5400
sg13
F5200
sg14
F750
sg15
F1000
sbag2
(g3
g4
NtRp2698
(dp2699
g7
F4200
sg8
F4000
sg9
(dp2700
g11
I1000
ssg12
F5600
sg13
F5400
sg14
F750
sg15
F1000
sbag2
(g3
g4
NtRp2701
(dp2702
g7
F4400
sg8
F4200
sg9
(dp2703
g11
I1000
ssg12
F3200
sg13
F3000
sg14
F750
sg15
F1000
sbag2
(g3
g4
NtRp2704
(dp2705
g7
F4400
sg8
F4200
sg9
(dp2706
g11
I1000
ssg12
F3400
sg13
F3200
sg14
F750
sg15
F1000
sbag2
(g3
g4
NtRp2707
(dp2708
g7
F4400
sg8
F4200
sg9
(dp2709
g11
I1000
ssg12
F3600
sg13
F3400
sg14
F750
sg15
F1000
sbag2
(g3
g4
NtRp2710
(dp2711
g7
F4400
sg8
F4200
sg9
(dp2712
g11
I1000
ssg12
F3800
sg13
F3600
sg14
F750
sg15
F1000
sbag2
(g3
g4
NtRp2713
(dp2714
g7
F4400
sg8
F4200
sg9
(dp2715
g11
I1000
ssg12
F4000
sg13
F3800
sg14
F750
sg15
F1000
sbag2
(g3
g4
NtRp2716
(dp2717
g7
F4400
sg8
F4200
sg9
(dp2718
g11
I1000
ssg12
F4200
sg13
F4000
sg14
F750
sg15
F1000
sbag2
(g3
g4
NtRp2719
(dp2720
g7
F4400
sg8
F4200
sg9
(dp2721
g11
I1000
ssg12
F4400
sg13
F4200
sg14
F750
sg15
F1000
sbag2
(g3
g4
NtRp2722
(dp2723
g7
F4400
sg8
F4200
sg9
(dp2724
g11
I1000
ssg12
F4600
sg13
F4400
sg14
F750
sg15
F1000
sbag2
(g3
g4
NtRp2725
(dp2726
g7
F4400
sg8
F4200
sg9
(dp2727
g11
I1000
ssg12
F4800
sg13
F4600
sg14
F750
sg15
F1000
sbag2
(g3
g4
NtRp2728
(dp2729
g7
F4400
sg8
F4200
sg9
(dp2730
g11
I1000
ssg12
F5000
sg13
F4800
sg14
F750
sg15
F1000
sbag2
(g3
g4
NtRp2731
(dp2732
g7
F4400
sg8
F4200
sg9
(dp2733
g11
I1000
ssg12
F5200
sg13
F5000
sg14
F750
sg15
F1000
sbag2
(g3
g4
NtRp2734
(dp2735
g7
F4400
sg8
F4200
sg9
(dp2736
g11
I1000
ssg12
F5400
sg13
F5200
sg14
F750
sg15
F1000
sbag2
(g3
g4
NtRp2737
(dp2738
g7
F4400
sg8
F4200
sg9
(dp2739
g11
I1000
ssg12
F5600
sg13
F5400
sg14
F750
sg15
F1000
sbag2
(g3
g4
NtRp2740
(dp2741
g7
F4400
sg8
F4200
sg9
(dp2742
g11
I1000
ssg12
F5800
sg13
F5600
sg14
F750
sg15
F1000
sbag2
(g3
g4
NtRp2743
(dp2744
g7
F4600
sg8
F4400
sg9
(dp2745
g11
I1000
ssg12
F3400
sg13
F3200
sg14
F750
sg15
F1000
sbag2
(g3
g4
NtRp2746
(dp2747
g7
F4600
sg8
F4400
sg9
(dp2748
g11
I1000
ssg12
F3600
sg13
F3400
sg14
F750
sg15
F1000
sbag2
(g3
g4
NtRp2749
(dp2750
g7
F4600
sg8
F4400
sg9
(dp2751
g11
I1000
ssg12
F3800
sg13
F3600
sg14
F750
sg15
F1000
sbag2
(g3
g4
NtRp2752
(dp2753
g7
F4600
sg8
F4400
sg9
(dp2754
g11
I1000
ssg12
F4000
sg13
F3800
sg14
F750
sg15
F1000
sbag2
(g3
g4
NtRp2755
(dp2756
g7
F4600
sg8
F4400
sg9
(dp2757
g11
I1000
ssg12
F4200
sg13
F4000
sg14
F750
sg15
F1000
sbag2
(g3
g4
NtRp2758
(dp2759
g7
F4600
sg8
F4400
sg9
(dp2760
g11
I1000
ssg12
F4400
sg13
F4200
sg14
F750
sg15
F1000
sbag2
(g3
g4
NtRp2761
(dp2762
g7
F4600
sg8
F4400
sg9
(dp2763
g11
I1000
ssg12
F4600
sg13
F4400
sg14
F750
sg15
F1000
sbag2
(g3
g4
NtRp2764
(dp2765
g7
F4600
sg8
F4400
sg9
(dp2766
g11
I1000
ssg12
F4800
sg13
F4600
sg14
F750
sg15
F1000
sbag2
(g3
g4
NtRp2767
(dp2768
g7
F4600
sg8
F4400
sg9
(dp2769
g11
I1000
ssg12
F5000
sg13
F4800
sg14
F750
sg15
F1000
sbag2
(g3
g4
NtRp2770
(dp2771
g7
F4600
sg8
F4400
sg9
(dp2772
g11
I1000
ssg12
F5200
sg13
F5000
sg14
F750
sg15
F1000
sbag2
(g3
g4
NtRp2773
(dp2774
g7
F4600
sg8
F4400
sg9
(dp2775
g11
I1000
ssg12
F5400
sg13
F5200
sg14
F750
sg15
F1000
sbag2
(g3
g4
NtRp2776
(dp2777
g7
F4600
sg8
F4400
sg9
(dp2778
g11
I1000
ssg12
F5600
sg13
F5400
sg14
F750
sg15
F1000
sbag2
(g3
g4
NtRp2779
(dp2780
g7
F4600
sg8
F4400
sg9
(dp2781
g11
I1000
ssg12
F5800
sg13
F5600
sg14
F750
sg15
F1000
sbag2
(g3
g4
NtRp2782
(dp2783
g7
F4600
sg8
F4400
sg9
(dp2784
g11
I1000
ssg12
F6000
sg13
F5800
sg14
F750
sg15
F1000
sbag2
(g3
g4
NtRp2785
(dp2786
g7
F4800
sg8
F4600
sg9
(dp2787
g11
I1000
ssg12
F3600
sg13
F3400
sg14
F750
sg15
F1000
sbag2
(g3
g4
NtRp2788
(dp2789
g7
F4800
sg8
F4600
sg9
(dp2790
g11
I1000
ssg12
F3800
sg13
F3600
sg14
F750
sg15
F1000
sbag2
(g3
g4
NtRp2791
(dp2792
g7
F4800
sg8
F4600
sg9
(dp2793
g11
I1000
ssg12
F4000
sg13
F3800
sg14
F750
sg15
F1000
sbag2
(g3
g4
NtRp2794
(dp2795
g7
F4800
sg8
F4600
sg9
(dp2796
g11
I1000
ssg12
F4200
sg13
F4000
sg14
F750
sg15
F1000
sbag2
(g3
g4
NtRp2797
(dp2798
g7
F4800
sg8
F4600
sg9
(dp2799
g11
I1000
ssg12
F4400
sg13
F4200
sg14
F750
sg15
F1000
sbag2
(g3
g4
NtRp2800
(dp2801
g7
F4800
sg8
F4600
sg9
(dp2802
g11
I1000
ssg12
F4600
sg13
F4400
sg14
F750
sg15
F1000
sbag2
(g3
g4
NtRp2803
(dp2804
g7
F4800
sg8
F4600
sg9
(dp2805
g11
I1000
ssg12
F4800
sg13
F4600
sg14
F750
sg15
F1000
sbag2
(g3
g4
NtRp2806
(dp2807
g7
F4800
sg8
F4600
sg9
(dp2808
g11
I1000
ssg12
F5000
sg13
F4800
sg14
F750
sg15
F1000
sbag2
(g3
g4
NtRp2809
(dp2810
g7
F4800
sg8
F4600
sg9
(dp2811
g11
I1000
ssg12
F5200
sg13
F5000
sg14
F750
sg15
F1000
sbag2
(g3
g4
NtRp2812
(dp2813
g7
F4800
sg8
F4600
sg9
(dp2814
g11
I1000
ssg12
F5400
sg13
F5200
sg14
F750
sg15
F1000
sbag2
(g3
g4
NtRp2815
(dp2816
g7
F4800
sg8
F4600
sg9
(dp2817
g11
I1000
ssg12
F5600
sg13
F5400
sg14
F750
sg15
F1000
sbag2
(g3
g4
NtRp2818
(dp2819
g7
F4800
sg8
F4600
sg9
(dp2820
g11
I1000
ssg12
F5800
sg13
F5600
sg14
F750
sg15
F1000
sbag2
(g3
g4
NtRp2821
(dp2822
g7
F4800
sg8
F4600
sg9
(dp2823
g11
I1000
ssg12
F6000
sg13
F5800
sg14
F750
sg15
F1000
sbag2
(g3
g4
NtRp2824
(dp2825
g7
F4800
sg8
F4600
sg9
(dp2826
g11
I1000
ssg12
F6200
sg13
F6000
sg14
F750
sg15
F1000
sbag2
(g3
g4
NtRp2827
(dp2828
g7
F5000
sg8
F4800
sg9
(dp2829
g11
I1000
ssg12
F4000
sg13
F3800
sg14
F750
sg15
F1000
sbag2
(g3
g4
NtRp2830
(dp2831
g7
F5000
sg8
F4800
sg9
(dp2832
g11
I1000
ssg12
F4200
sg13
F4000
sg14
F750
sg15
F1000
sbag2
(g3
g4
NtRp2833
(dp2834
g7
F5000
sg8
F4800
sg9
(dp2835
g11
I1000
ssg12
F4400
sg13
F4200
sg14
F750
sg15
F1000
sbag2
(g3
g4
NtRp2836
(dp2837
g7
F5000
sg8
F4800
sg9
(dp2838
g11
I1000
ssg12
F4600
sg13
F4400
sg14
F750
sg15
F1000
sbag2
(g3
g4
NtRp2839
(dp2840
g7
F5000
sg8
F4800
sg9
(dp2841
g11
I1000
ssg12
F4800
sg13
F4600
sg14
F750
sg15
F1000
sbag2
(g3
g4
NtRp2842
(dp2843
g7
F5000
sg8
F4800
sg9
(dp2844
g11
I1000
ssg12
F5000
sg13
F4800
sg14
F750
sg15
F1000
sbag2
(g3
g4
NtRp2845
(dp2846
g7
F5000
sg8
F4800
sg9
(dp2847
g11
I1000
ssg12
F5200
sg13
F5000
sg14
F750
sg15
F1000
sbag2
(g3
g4
NtRp2848
(dp2849
g7
F5000
sg8
F4800
sg9
(dp2850
g11
I1000
ssg12
F5400
sg13
F5200
sg14
F750
sg15
F1000
sbag2
(g3
g4
NtRp2851
(dp2852
g7
F5000
sg8
F4800
sg9
(dp2853
g11
I1000
ssg12
F5600
sg13
F5400
sg14
F750
sg15
F1000
sbag2
(g3
g4
NtRp2854
(dp2855
g7
F5000
sg8
F4800
sg9
(dp2856
g11
I1000
ssg12
F5800
sg13
F5600
sg14
F750
sg15
F1000
sbag2
(g3
g4
NtRp2857
(dp2858
g7
F5000
sg8
F4800
sg9
(dp2859
g11
I1000
ssg12
F6000
sg13
F5800
sg14
F750
sg15
F1000
sbag2
(g3
g4
NtRp2860
(dp2861
g7
F5000
sg8
F4800
sg9
(dp2862
g11
I1000
ssg12
F6200
sg13
F6000
sg14
F750
sg15
F1000
sbag2
(g3
g4
NtRp2863
(dp2864
g7
F5000
sg8
F4800
sg9
(dp2865
g11
I1000
ssg12
F6400
sg13
F6200
sg14
F750
sg15
F1000
sbag2
(g3
g4
NtRp2866
(dp2867
g7
F5200
sg8
F5000
sg9
(dp2868
g11
I1000
ssg12
F4400
sg13
F4200
sg14
F750
sg15
F1000
sbag2
(g3
g4
NtRp2869
(dp2870
g7
F5200
sg8
F5000
sg9
(dp2871
g11
I1000
ssg12
F4600
sg13
F4400
sg14
F750
sg15
F1000
sbag2
(g3
g4
NtRp2872
(dp2873
g7
F5200
sg8
F5000
sg9
(dp2874
g11
I1000
ssg12
F4800
sg13
F4600
sg14
F750
sg15
F1000
sbag2
(g3
g4
NtRp2875
(dp2876
g7
F5200
sg8
F5000
sg9
(dp2877
g11
I1000
ssg12
F5000
sg13
F4800
sg14
F750
sg15
F1000
sbag2
(g3
g4
NtRp2878
(dp2879
g7
F5200
sg8
F5000
sg9
(dp2880
g11
I1000
ssg12
F5200
sg13
F5000
sg14
F750
sg15
F1000
sbag2
(g3
g4
NtRp2881
(dp2882
g7
F5200
sg8
F5000
sg9
(dp2883
g11
I1000
ssg12
F5400
sg13
F5200
sg14
F750
sg15
F1000
sbag2
(g3
g4
NtRp2884
(dp2885
g7
F5200
sg8
F5000
sg9
(dp2886
g11
I1000
ssg12
F5600
sg13
F5400
sg14
F750
sg15
F1000
sbag2
(g3
g4
NtRp2887
(dp2888
g7
F5200
sg8
F5000
sg9
(dp2889
g11
I1000
ssg12
F5800
sg13
F5600
sg14
F750
sg15
F1000
sbag2
(g3
g4
NtRp2890
(dp2891
g7
F5200
sg8
F5000
sg9
(dp2892
g11
I1000
ssg12
F6000
sg13
F5800
sg14
F750
sg15
F1000
sbag2
(g3
g4
NtRp2893
(dp2894
g7
F5200
sg8
F5000
sg9
(dp2895
g11
I1000
ssg12
F6200
sg13
F6000
sg14
F750
sg15
F1000
sbag2
(g3
g4
NtRp2896
(dp2897
g7
F5200
sg8
F5000
sg9
(dp2898
g11
I1000
ssg12
F6400
sg13
F6200
sg14
F750
sg15
F1000
sbag2
(g3
g4
NtRp2899
(dp2900
g7
F5200
sg8
F5000
sg9
(dp2901
g11
I1000
ssg12
F6600
sg13
F6400
sg14
F750
sg15
F1000
sbag2
(g3
g4
NtRp2902
(dp2903
g7
F5400
sg8
F5200
sg9
(dp2904
g11
I1000
ssg12
F4400
sg13
F4200
sg14
F750
sg15
F1000
sbag2
(g3
g4
NtRp2905
(dp2906
g7
F5400
sg8
F5200
sg9
(dp2907
g11
I1000
ssg12
F4600
sg13
F4400
sg14
F750
sg15
F1000
sbag2
(g3
g4
NtRp2908
(dp2909
g7
F5400
sg8
F5200
sg9
(dp2910
g11
I1000
ssg12
F4800
sg13
F4600
sg14
F750
sg15
F1000
sbag2
(g3
g4
NtRp2911
(dp2912
g7
F5400
sg8
F5200
sg9
(dp2913
g11
I1000
ssg12
F5000
sg13
F4800
sg14
F750
sg15
F1000
sbag2
(g3
g4
NtRp2914
(dp2915
g7
F5400
sg8
F5200
sg9
(dp2916
g11
I1000
ssg12
F5200
sg13
F5000
sg14
F750
sg15
F1000
sbag2
(g3
g4
NtRp2917
(dp2918
g7
F5400
sg8
F5200
sg9
(dp2919
g11
I1000
ssg12
F5400
sg13
F5200
sg14
F750
sg15
F1000
sbag2
(g3
g4
NtRp2920
(dp2921
g7
F5400
sg8
F5200
sg9
(dp2922
g11
I1000
ssg12
F5600
sg13
F5400
sg14
F750
sg15
F1000
sbag2
(g3
g4
NtRp2923
(dp2924
g7
F5400
sg8
F5200
sg9
(dp2925
g11
I1000
ssg12
F5800
sg13
F5600
sg14
F750
sg15
F1000
sbag2
(g3
g4
NtRp2926
(dp2927
g7
F5400
sg8
F5200
sg9
(dp2928
g11
I1000
ssg12
F6000
sg13
F5800
sg14
F750
sg15
F1000
sbag2
(g3
g4
NtRp2929
(dp2930
g7
F5400
sg8
F5200
sg9
(dp2931
g11
I1000
ssg12
F6200
sg13
F6000
sg14
F750
sg15
F1000
sbag2
(g3
g4
NtRp2932
(dp2933
g7
F5400
sg8
F5200
sg9
(dp2934
g11
I1000
ssg12
F6400
sg13
F6200
sg14
F750
sg15
F1000
sbag2
(g3
g4
NtRp2935
(dp2936
g7
F5400
sg8
F5200
sg9
(dp2937
g11
I1000
ssg12
F6600
sg13
F6400
sg14
F750
sg15
F1000
sbag2
(g3
g4
NtRp2938
(dp2939
g7
F5400
sg8
F5200
sg9
(dp2940
g11
I1000
ssg12
F6800
sg13
F6600
sg14
F750
sg15
F1000
sbag2
(g3
g4
NtRp2941
(dp2942
g7
F5600
sg8
F5400
sg9
(dp2943
g11
I1000
ssg12
F4600
sg13
F4400
sg14
F750
sg15
F1000
sbag2
(g3
g4
NtRp2944
(dp2945
g7
F5600
sg8
F5400
sg9
(dp2946
g11
I1000
ssg12
F4800
sg13
F4600
sg14
F750
sg15
F1000
sbag2
(g3
g4
NtRp2947
(dp2948
g7
F5600
sg8
F5400
sg9
(dp2949
g11
I1000
ssg12
F5000
sg13
F4800
sg14
F750
sg15
F1000
sbag2
(g3
g4
NtRp2950
(dp2951
g7
F5600
sg8
F5400
sg9
(dp2952
g11
I1000
ssg12
F5200
sg13
F5000
sg14
F750
sg15
F1000
sbag2
(g3
g4
NtRp2953
(dp2954
g7
F5600
sg8
F5400
sg9
(dp2955
g11
I1000
ssg12
F5400
sg13
F5200
sg14
F750
sg15
F1000
sbag2
(g3
g4
NtRp2956
(dp2957
g7
F5600
sg8
F5400
sg9
(dp2958
g11
I1000
ssg12
F5600
sg13
F5400
sg14
F750
sg15
F1000
sbag2
(g3
g4
NtRp2959
(dp2960
g7
F5600
sg8
F5400
sg9
(dp2961
g11
I1000
ssg12
F5800
sg13
F5600
sg14
F750
sg15
F1000
sbag2
(g3
g4
NtRp2962
(dp2963
g7
F5600
sg8
F5400
sg9
(dp2964
g11
I1000
ssg12
F6000
sg13
F5800
sg14
F750
sg15
F1000
sbag2
(g3
g4
NtRp2965
(dp2966
g7
F5600
sg8
F5400
sg9
(dp2967
g11
I1000
ssg12
F6200
sg13
F6000
sg14
F750
sg15
F1000
sbag2
(g3
g4
NtRp2968
(dp2969
g7
F5600
sg8
F5400
sg9
(dp2970
g11
I1000
ssg12
F6400
sg13
F6200
sg14
F750
sg15
F1000
sbag2
(g3
g4
NtRp2971
(dp2972
g7
F5600
sg8
F5400
sg9
(dp2973
g11
I1000
ssg12
F6600
sg13
F6400
sg14
F750
sg15
F1000
sbag2
(g3
g4
NtRp2974
(dp2975
g7
F5600
sg8
F5400
sg9
(dp2976
g11
I1000
ssg12
F6800
sg13
F6600
sg14
F750
sg15
F1000
sbag2
(g3
g4
NtRp2977
(dp2978
g7
F5800
sg8
F5600
sg9
(dp2979
g11
I1000
ssg12
F4800
sg13
F4600
sg14
F750
sg15
F1000
sbag2
(g3
g4
NtRp2980
(dp2981
g7
F5800
sg8
F5600
sg9
(dp2982
g11
I1000
ssg12
F5000
sg13
F4800
sg14
F750
sg15
F1000
sbag2
(g3
g4
NtRp2983
(dp2984
g7
F5800
sg8
F5600
sg9
(dp2985
g11
I1000
ssg12
F5200
sg13
F5000
sg14
F750
sg15
F1000
sbag2
(g3
g4
NtRp2986
(dp2987
g7
F5800
sg8
F5600
sg9
(dp2988
g11
I1000
ssg12
F5400
sg13
F5200
sg14
F750
sg15
F1000
sbag2
(g3
g4
NtRp2989
(dp2990
g7
F5800
sg8
F5600
sg9
(dp2991
g11
I1000
ssg12
F5600
sg13
F5400
sg14
F750
sg15
F1000
sbag2
(g3
g4
NtRp2992
(dp2993
g7
F5800
sg8
F5600
sg9
(dp2994
g11
I1000
ssg12
F5800
sg13
F5600
sg14
F750
sg15
F1000
sbag2
(g3
g4
NtRp2995
(dp2996
g7
F5800
sg8
F5600
sg9
(dp2997
g11
I1000
ssg12
F6000
sg13
F5800
sg14
F750
sg15
F1000
sbag2
(g3
g4
NtRp2998
(dp2999
g7
F5800
sg8
F5600
sg9
(dp3000
g11
I1000
ssg12
F6200
sg13
F6000
sg14
F750
sg15
F1000
sbag2
(g3
g4
NtRp3001
(dp3002
g7
F5800
sg8
F5600
sg9
(dp3003
g11
I1000
ssg12
F6400
sg13
F6200
sg14
F750
sg15
F1000
sbag2
(g3
g4
NtRp3004
(dp3005
g7
F5800
sg8
F5600
sg9
(dp3006
g11
I1000
ssg12
F6600
sg13
F6400
sg14
F750
sg15
F1000
sbag2
(g3
g4
NtRp3007
(dp3008
g7
F5800
sg8
F5600
sg9
(dp3009
g11
I1000
ssg12
F6800
sg13
F6600
sg14
F750
sg15
F1000
sbag2
(g3
g4
NtRp3010
(dp3011
g7
F6000
sg8
F5800
sg9
(dp3012
g11
I1000
ssg12
F5000
sg13
F4800
sg14
F750
sg15
F1000
sbag2
(g3
g4
NtRp3013
(dp3014
g7
F6000
sg8
F5800
sg9
(dp3015
g11
I1000
ssg12
F5200
sg13
F5000
sg14
F750
sg15
F1000
sbag2
(g3
g4
NtRp3016
(dp3017
g7
F6000
sg8
F5800
sg9
(dp3018
g11
I1000
ssg12
F5400
sg13
F5200
sg14
F750
sg15
F1000
sbag2
(g3
g4
NtRp3019
(dp3020
g7
F6000
sg8
F5800
sg9
(dp3021
g11
I1000
ssg12
F5600
sg13
F5400
sg14
F750
sg15
F1000
sbag2
(g3
g4
NtRp3022
(dp3023
g7
F6000
sg8
F5800
sg9
(dp3024
g11
I1000
ssg12
F5800
sg13
F5600
sg14
F750
sg15
F1000
sbag2
(g3
g4
NtRp3025
(dp3026
g7
F6000
sg8
F5800
sg9
(dp3027
g11
I1000
ssg12
F6000
sg13
F5800
sg14
F750
sg15
F1000
sbag2
(g3
g4
NtRp3028
(dp3029
g7
F6000
sg8
F5800
sg9
(dp3030
g11
I1000
ssg12
F6200
sg13
F6000
sg14
F750
sg15
F1000
sbag2
(g3
g4
NtRp3031
(dp3032
g7
F6000
sg8
F5800
sg9
(dp3033
g11
I1000
ssg12
F6400
sg13
F6200
sg14
F750
sg15
F1000
sbag2
(g3
g4
NtRp3034
(dp3035
g7
F6000
sg8
F5800
sg9
(dp3036
g11
I1000
ssg12
F6600
sg13
F6400
sg14
F750
sg15
F1000
sbag2
(g3
g4
NtRp3037
(dp3038
g7
F6000
sg8
F5800
sg9
(dp3039
g11
I1000
ssg12
F6800
sg13
F6600
sg14
F750
sg15
F1000
sbag2
(g3
g4
NtRp3040
(dp3041
g7
F6200
sg8
F6000
sg9
(dp3042
g11
I1000
ssg12
F5200
sg13
F5000
sg14
F750
sg15
F1000
sbag2
(g3
g4
NtRp3043
(dp3044
g7
F6200
sg8
F6000
sg9
(dp3045
g11
I1000
ssg12
F5400
sg13
F5200
sg14
F750
sg15
F1000
sbag2
(g3
g4
NtRp3046
(dp3047
g7
F6200
sg8
F6000
sg9
(dp3048
g11
I1000
ssg12
F5600
sg13
F5400
sg14
F750
sg15
F1000
sbag2
(g3
g4
NtRp3049
(dp3050
g7
F6200
sg8
F6000
sg9
(dp3051
g11
I1000
ssg12
F5800
sg13
F5600
sg14
F750
sg15
F1000
sbag2
(g3
g4
NtRp3052
(dp3053
g7
F6200
sg8
F6000
sg9
(dp3054
g11
I1000
ssg12
F6000
sg13
F5800
sg14
F750
sg15
F1000
sbag2
(g3
g4
NtRp3055
(dp3056
g7
F6200
sg8
F6000
sg9
(dp3057
g11
I1000
ssg12
F6200
sg13
F6000
sg14
F750
sg15
F1000
sbag2
(g3
g4
NtRp3058
(dp3059
g7
F6200
sg8
F6000
sg9
(dp3060
g11
I1000
ssg12
F6400
sg13
F6200
sg14
F750
sg15
F1000
sbag2
(g3
g4
NtRp3061
(dp3062
g7
F6200
sg8
F6000
sg9
(dp3063
g11
I1000
ssg12
F6600
sg13
F6400
sg14
F750
sg15
F1000
sbag2
(g3
g4
NtRp3064
(dp3065
g7
F6200
sg8
F6000
sg9
(dp3066
g11
I1000
ssg12
F6800
sg13
F6600
sg14
F750
sg15
F1000
sbag2
(g3
g4
NtRp3067
(dp3068
g7
F6400
sg8
F6200
sg9
(dp3069
g11
I1000
ssg12
F5600
sg13
F5400
sg14
F750
sg15
F1000
sbag2
(g3
g4
NtRp3070
(dp3071
g7
F6400
sg8
F6200
sg9
(dp3072
g11
I1000
ssg12
F5800
sg13
F5600
sg14
F750
sg15
F1000
sbag2
(g3
g4
NtRp3073
(dp3074
g7
F6400
sg8
F6200
sg9
(dp3075
g11
I1000
ssg12
F6000
sg13
F5800
sg14
F750
sg15
F1000
sbag2
(g3
g4
NtRp3076
(dp3077
g7
F6400
sg8
F6200
sg9
(dp3078
g11
I1000
ssg12
F6200
sg13
F6000
sg14
F750
sg15
F1000
sbag2
(g3
g4
NtRp3079
(dp3080
g7
F6400
sg8
F6200
sg9
(dp3081
g11
I1000
ssg12
F6400
sg13
F6200
sg14
F750
sg15
F1000
sbag2
(g3
g4
NtRp3082
(dp3083
g7
F6400
sg8
F6200
sg9
(dp3084
g11
I1000
ssg12
F6600
sg13
F6400
sg14
F750
sg15
F1000
sbag2
(g3
g4
NtRp3085
(dp3086
g7
F6400
sg8
F6200
sg9
(dp3087
g11
I1000
ssg12
F6800
sg13
F6600
sg14
F750
sg15
F1000
sbag2
(g3
g4
NtRp3088
(dp3089
g7
F6600
sg8
F6400
sg9
(dp3090
g11
I1000
ssg12
F6000
sg13
F5800
sg14
F750
sg15
F1000
sbag2
(g3
g4
NtRp3091
(dp3092
g7
F6600
sg8
F6400
sg9
(dp3093
g11
I1000
ssg12
F6600
sg13
F6400
sg14
F750
sg15
F1000
sbag2
(g3
g4
NtRp3094
(dp3095
g7
F6600
sg8
F6400
sg9
(dp3096
g11
I1000
ssg12
F7000
sg13
F6800
sg14
F750
sg15
F1000
sbag2
(g3
g4
NtRp3097
(dp3098
g7
F6600
sg8
F6400
sg9
(dp3099
g11
I1000
ssg12
F7200
sg13
F7000
sg14
F750
sg15
F1000
sbag2
(g3
g4
NtRp3100
(dp3101
g7
F6800
sg8
F6600
sg9
(dp3102
g11
I1000
ssg12
F7200
sg13
F7000
sg14
F750
sg15
F1000
sbag2
(g3
g4
NtRp3103
(dp3104
g7
F7000
sg8
F6800
sg9
(dp3105
g11
I1000
ssg12
F7200
sg13
F7000
sg14
F750
sg15
F1000
sbag2
(g3
g4
NtRp3106
(dp3107
g7
F2800
sg8
F2600
sg9
(dp3108
g11
I1000
ssg12
F3400
sg13
F3200
sg14
F1000
sg15
F1250
sbag2
(g3
g4
NtRp3109
(dp3110
g7
F2800
sg8
F2600
sg9
(dp3111
g11
I1000
ssg12
F3600
sg13
F3400
sg14
F1000
sg15
F1250
sbag2
(g3
g4
NtRp3112
(dp3113
g7
F2800
sg8
F2600
sg9
(dp3114
g11
I1000
ssg12
F3800
sg13
F3600
sg14
F1000
sg15
F1250
sbag2
(g3
g4
NtRp3115
(dp3116
g7
F2800
sg8
F2600
sg9
(dp3117
g11
I1000
ssg12
F4000
sg13
F3800
sg14
F1000
sg15
F1250
sbag2
(g3
g4
NtRp3118
(dp3119
g7
F3000
sg8
F2800
sg9
(dp3120
g11
I1000
ssg12
F3200
sg13
F3000
sg14
F1000
sg15
F1250
sbag2
(g3
g4
NtRp3121
(dp3122
g7
F3000
sg8
F2800
sg9
(dp3123
g11
I1000
ssg12
F3400
sg13
F3200
sg14
F1000
sg15
F1250
sbag2
(g3
g4
NtRp3124
(dp3125
g7
F3000
sg8
F2800
sg9
(dp3126
g11
I1000
ssg12
F3600
sg13
F3400
sg14
F1000
sg15
F1250
sbag2
(g3
g4
NtRp3127
(dp3128
g7
F3000
sg8
F2800
sg9
(dp3129
g11
I1000
ssg12
F3800
sg13
F3600
sg14
F1000
sg15
F1250
sbag2
(g3
g4
NtRp3130
(dp3131
g7
F3000
sg8
F2800
sg9
(dp3132
g11
I1000
ssg12
F4000
sg13
F3800
sg14
F1000
sg15
F1250
sbag2
(g3
g4
NtRp3133
(dp3134
g7
F3000
sg8
F2800
sg9
(dp3135
g11
I1000
ssg12
F4200
sg13
F4000
sg14
F1000
sg15
F1250
sbag2
(g3
g4
NtRp3136
(dp3137
g7
F3000
sg8
F2800
sg9
(dp3138
g11
I1000
ssg12
F4400
sg13
F4200
sg14
F1000
sg15
F1250
sbag2
(g3
g4
NtRp3139
(dp3140
g7
F3200
sg8
F3000
sg9
(dp3141
g11
I1000
ssg12
F3000
sg13
F2800
sg14
F1000
sg15
F1250
sbag2
(g3
g4
NtRp3142
(dp3143
g7
F3200
sg8
F3000
sg9
(dp3144
g11
I1000
ssg12
F3200
sg13
F3000
sg14
F1000
sg15
F1250
sbag2
(g3
g4
NtRp3145
(dp3146
g7
F3200
sg8
F3000
sg9
(dp3147
g11
I1000
ssg12
F3400
sg13
F3200
sg14
F1000
sg15
F1250
sbag2
(g3
g4
NtRp3148
(dp3149
g7
F3200
sg8
F3000
sg9
(dp3150
g11
I1000
ssg12
F3600
sg13
F3400
sg14
F1000
sg15
F1250
sbag2
(g3
g4
NtRp3151
(dp3152
g7
F3200
sg8
F3000
sg9
(dp3153
g11
I1000
ssg12
F3800
sg13
F3600
sg14
F1000
sg15
F1250
sbag2
(g3
g4
NtRp3154
(dp3155
g7
F3200
sg8
F3000
sg9
(dp3156
g11
I1000
ssg12
F4000
sg13
F3800
sg14
F1000
sg15
F1250
sbag2
(g3
g4
NtRp3157
(dp3158
g7
F3200
sg8
F3000
sg9
(dp3159
g11
I1000
ssg12
F4200
sg13
F4000
sg14
F1000
sg15
F1250
sbag2
(g3
g4
NtRp3160
(dp3161
g7
F3200
sg8
F3000
sg9
(dp3162
g11
I1000
ssg12
F4400
sg13
F4200
sg14
F1000
sg15
F1250
sbag2
(g3
g4
NtRp3163
(dp3164
g7
F3200
sg8
F3000
sg9
(dp3165
g11
I1000
ssg12
F4600
sg13
F4400
sg14
F1000
sg15
F1250
sbag2
(g3
g4
NtRp3166
(dp3167
g7
F3400
sg8
F3200
sg9
(dp3168
g11
I1000
ssg12
F2800
sg13
F2600
sg14
F1000
sg15
F1250
sbag2
(g3
g4
NtRp3169
(dp3170
g7
F3400
sg8
F3200
sg9
(dp3171
g11
I1000
ssg12
F3000
sg13
F2800
sg14
F1000
sg15
F1250
sbag2
(g3
g4
NtRp3172
(dp3173
g7
F3400
sg8
F3200
sg9
(dp3174
g11
I1000
ssg12
F3200
sg13
F3000
sg14
F1000
sg15
F1250
sbag2
(g3
g4
NtRp3175
(dp3176
g7
F3400
sg8
F3200
sg9
(dp3177
g11
I1000
ssg12
F3400
sg13
F3200
sg14
F1000
sg15
F1250
sbag2
(g3
g4
NtRp3178
(dp3179
g7
F3400
sg8
F3200
sg9
(dp3180
g11
I1000
ssg12
F3600
sg13
F3400
sg14
F1000
sg15
F1250
sbag2
(g3
g4
NtRp3181
(dp3182
g7
F3400
sg8
F3200
sg9
(dp3183
g11
I1000
ssg12
F3800
sg13
F3600
sg14
F1000
sg15
F1250
sbag2
(g3
g4
NtRp3184
(dp3185
g7
F3400
sg8
F3200
sg9
(dp3186
g11
I1000
ssg12
F4000
sg13
F3800
sg14
F1000
sg15
F1250
sbag2
(g3
g4
NtRp3187
(dp3188
g7
F3400
sg8
F3200
sg9
(dp3189
g11
I1000
ssg12
F4200
sg13
F4000
sg14
F1000
sg15
F1250
sbag2
(g3
g4
NtRp3190
(dp3191
g7
F3400
sg8
F3200
sg9
(dp3192
g11
I1000
ssg12
F4400
sg13
F4200
sg14
F1000
sg15
F1250
sbag2
(g3
g4
NtRp3193
(dp3194
g7
F3400
sg8
F3200
sg9
(dp3195
g11
I1000
ssg12
F4600
sg13
F4400
sg14
F1000
sg15
F1250
sbag2
(g3
g4
NtRp3196
(dp3197
g7
F3400
sg8
F3200
sg9
(dp3198
g11
I1000
ssg12
F4800
sg13
F4600
sg14
F1000
sg15
F1250
sbag2
(g3
g4
NtRp3199
(dp3200
g7
F3600
sg8
F3400
sg9
(dp3201
g11
I1000
ssg12
F2800
sg13
F2600
sg14
F1000
sg15
F1250
sbag2
(g3
g4
NtRp3202
(dp3203
g7
F3600
sg8
F3400
sg9
(dp3204
g11
I1000
ssg12
F3000
sg13
F2800
sg14
F1000
sg15
F1250
sbag2
(g3
g4
NtRp3205
(dp3206
g7
F3600
sg8
F3400
sg9
(dp3207
g11
I1000
ssg12
F3200
sg13
F3000
sg14
F1000
sg15
F1250
sbag2
(g3
g4
NtRp3208
(dp3209
g7
F3600
sg8
F3400
sg9
(dp3210
g11
I1000
ssg12
F3400
sg13
F3200
sg14
F1000
sg15
F1250
sbag2
(g3
g4
NtRp3211
(dp3212
g7
F3600
sg8
F3400
sg9
(dp3213
g11
I1000
ssg12
F3600
sg13
F3400
sg14
F1000
sg15
F1250
sbag2
(g3
g4
NtRp3214
(dp3215
g7
F3600
sg8
F3400
sg9
(dp3216
g11
I1000
ssg12
F3800
sg13
F3600
sg14
F1000
sg15
F1250
sbag2
(g3
g4
NtRp3217
(dp3218
g7
F3600
sg8
F3400
sg9
(dp3219
g11
I1000
ssg12
F4000
sg13
F3800
sg14
F1000
sg15
F1250
sbag2
(g3
g4
NtRp3220
(dp3221
g7
F3600
sg8
F3400
sg9
(dp3222
g11
I1000
ssg12
F4200
sg13
F4000
sg14
F1000
sg15
F1250
sbag2
(g3
g4
NtRp3223
(dp3224
g7
F3600
sg8
F3400
sg9
(dp3225
g11
I1000
ssg12
F4400
sg13
F4200
sg14
F1000
sg15
F1250
sbag2
(g3
g4
NtRp3226
(dp3227
g7
F3600
sg8
F3400
sg9
(dp3228
g11
I1000
ssg12
F4600
sg13
F4400
sg14
F1000
sg15
F1250
sbag2
(g3
g4
NtRp3229
(dp3230
g7
F3600
sg8
F3400
sg9
(dp3231
g11
I1000
ssg12
F4800
sg13
F4600
sg14
F1000
sg15
F1250
sbag2
(g3
g4
NtRp3232
(dp3233
g7
F3600
sg8
F3400
sg9
(dp3234
g11
I1000
ssg12
F5000
sg13
F4800
sg14
F1000
sg15
F1250
sbag2
(g3
g4
NtRp3235
(dp3236
g7
F3800
sg8
F3600
sg9
(dp3237
g11
I1000
ssg12
F2800
sg13
F2600
sg14
F1000
sg15
F1250
sbag2
(g3
g4
NtRp3238
(dp3239
g7
F3800
sg8
F3600
sg9
(dp3240
g11
I1000
ssg12
F3000
sg13
F2800
sg14
F1000
sg15
F1250
sbag2
(g3
g4
NtRp3241
(dp3242
g7
F3800
sg8
F3600
sg9
(dp3243
g11
I1000
ssg12
F3200
sg13
F3000
sg14
F1000
sg15
F1250
sbag2
(g3
g4
NtRp3244
(dp3245
g7
F3800
sg8
F3600
sg9
(dp3246
g11
I1000
ssg12
F3400
sg13
F3200
sg14
F1000
sg15
F1250
sbag2
(g3
g4
NtRp3247
(dp3248
g7
F3800
sg8
F3600
sg9
(dp3249
g11
I1000
ssg12
F3600
sg13
F3400
sg14
F1000
sg15
F1250
sbag2
(g3
g4
NtRp3250
(dp3251
g7
F3800
sg8
F3600
sg9
(dp3252
g11
I1000
ssg12
F3800
sg13
F3600
sg14
F1000
sg15
F1250
sbag2
(g3
g4
NtRp3253
(dp3254
g7
F3800
sg8
F3600
sg9
(dp3255
g11
I1000
ssg12
F4000
sg13
F3800
sg14
F1000
sg15
F1250
sbag2
(g3
g4
NtRp3256
(dp3257
g7
F3800
sg8
F3600
sg9
(dp3258
g11
I1000
ssg12
F4200
sg13
F4000
sg14
F1000
sg15
F1250
sbag2
(g3
g4
NtRp3259
(dp3260
g7
F3800
sg8
F3600
sg9
(dp3261
g11
I1000
ssg12
F4400
sg13
F4200
sg14
F1000
sg15
F1250
sbag2
(g3
g4
NtRp3262
(dp3263
g7
F3800
sg8
F3600
sg9
(dp3264
g11
I1000
ssg12
F4600
sg13
F4400
sg14
F1000
sg15
F1250
sbag2
(g3
g4
NtRp3265
(dp3266
g7
F3800
sg8
F3600
sg9
(dp3267
g11
I1000
ssg12
F4800
sg13
F4600
sg14
F1000
sg15
F1250
sbag2
(g3
g4
NtRp3268
(dp3269
g7
F3800
sg8
F3600
sg9
(dp3270
g11
I1000
ssg12
F5000
sg13
F4800
sg14
F1000
sg15
F1250
sbag2
(g3
g4
NtRp3271
(dp3272
g7
F3800
sg8
F3600
sg9
(dp3273
g11
I1000
ssg12
F5200
sg13
F5000
sg14
F1000
sg15
F1250
sbag2
(g3
g4
NtRp3274
(dp3275
g7
F4000
sg8
F3800
sg9
(dp3276
g11
I1000
ssg12
F3000
sg13
F2800
sg14
F1000
sg15
F1250
sbag2
(g3
g4
NtRp3277
(dp3278
g7
F4000
sg8
F3800
sg9
(dp3279
g11
I1000
ssg12
F3200
sg13
F3000
sg14
F1000
sg15
F1250
sbag2
(g3
g4
NtRp3280
(dp3281
g7
F4000
sg8
F3800
sg9
(dp3282
g11
I1000
ssg12
F3400
sg13
F3200
sg14
F1000
sg15
F1250
sbag2
(g3
g4
NtRp3283
(dp3284
g7
F4000
sg8
F3800
sg9
(dp3285
g11
I1000
ssg12
F3600
sg13
F3400
sg14
F1000
sg15
F1250
sbag2
(g3
g4
NtRp3286
(dp3287
g7
F4000
sg8
F3800
sg9
(dp3288
g11
I1000
ssg12
F3800
sg13
F3600
sg14
F1000
sg15
F1250
sbag2
(g3
g4
NtRp3289
(dp3290
g7
F4000
sg8
F3800
sg9
(dp3291
g11
I1000
ssg12
F4000
sg13
F3800
sg14
F1000
sg15
F1250
sbag2
(g3
g4
NtRp3292
(dp3293
g7
F4000
sg8
F3800
sg9
(dp3294
g11
I1000
ssg12
F4200
sg13
F4000
sg14
F1000
sg15
F1250
sbag2
(g3
g4
NtRp3295
(dp3296
g7
F4000
sg8
F3800
sg9
(dp3297
g11
I1000
ssg12
F4400
sg13
F4200
sg14
F1000
sg15
F1250
sbag2
(g3
g4
NtRp3298
(dp3299
g7
F4000
sg8
F3800
sg9
(dp3300
g11
I1000
ssg12
F4600
sg13
F4400
sg14
F1000
sg15
F1250
sbag2
(g3
g4
NtRp3301
(dp3302
g7
F4000
sg8
F3800
sg9
(dp3303
g11
I1000
ssg12
F4800
sg13
F4600
sg14
F1000
sg15
F1250
sbag2
(g3
g4
NtRp3304
(dp3305
g7
F4000
sg8
F3800
sg9
(dp3306
g11
I1000
ssg12
F5000
sg13
F4800
sg14
F1000
sg15
F1250
sbag2
(g3
g4
NtRp3307
(dp3308
g7
F4000
sg8
F3800
sg9
(dp3309
g11
I1000
ssg12
F5200
sg13
F5000
sg14
F1000
sg15
F1250
sbag2
(g3
g4
NtRp3310
(dp3311
g7
F4000
sg8
F3800
sg9
(dp3312
g11
I1000
ssg12
F5400
sg13
F5200
sg14
F1000
sg15
F1250
sbag2
(g3
g4
NtRp3313
(dp3314
g7
F4000
sg8
F3800
sg9
(dp3315
g11
I1000
ssg12
F5600
sg13
F5400
sg14
F1000
sg15
F1250
sbag2
(g3
g4
NtRp3316
(dp3317
g7
F4200
sg8
F4000
sg9
(dp3318
g11
I1000
ssg12
F3000
sg13
F2800
sg14
F1000
sg15
F1250
sbag2
(g3
g4
NtRp3319
(dp3320
g7
F4200
sg8
F4000
sg9
(dp3321
g11
I1000
ssg12
F3200
sg13
F3000
sg14
F1000
sg15
F1250
sbag2
(g3
g4
NtRp3322
(dp3323
g7
F4200
sg8
F4000
sg9
(dp3324
g11
I1000
ssg12
F3400
sg13
F3200
sg14
F1000
sg15
F1250
sbag2
(g3
g4
NtRp3325
(dp3326
g7
F4200
sg8
F4000
sg9
(dp3327
g11
I1000
ssg12
F3600
sg13
F3400
sg14
F1000
sg15
F1250
sbag2
(g3
g4
NtRp3328
(dp3329
g7
F4200
sg8
F4000
sg9
(dp3330
g11
I1000
ssg12
F3800
sg13
F3600
sg14
F1000
sg15
F1250
sbag2
(g3
g4
NtRp3331
(dp3332
g7
F4200
sg8
F4000
sg9
(dp3333
g11
I1000
ssg12
F4000
sg13
F3800
sg14
F1000
sg15
F1250
sbag2
(g3
g4
NtRp3334
(dp3335
g7
F4200
sg8
F4000
sg9
(dp3336
g11
I1000
ssg12
F4200
sg13
F4000
sg14
F1000
sg15
F1250
sbag2
(g3
g4
NtRp3337
(dp3338
g7
F4200
sg8
F4000
sg9
(dp3339
g11
I1000
ssg12
F4400
sg13
F4200
sg14
F1000
sg15
F1250
sbag2
(g3
g4
NtRp3340
(dp3341
g7
F4200
sg8
F4000
sg9
(dp3342
g11
I1000
ssg12
F4600
sg13
F4400
sg14
F1000
sg15
F1250
sbag2
(g3
g4
NtRp3343
(dp3344
g7
F4200
sg8
F4000
sg9
(dp3345
g11
I1000
ssg12
F4800
sg13
F4600
sg14
F1000
sg15
F1250
sbag2
(g3
g4
NtRp3346
(dp3347
g7
F4200
sg8
F4000
sg9
(dp3348
g11
I1000
ssg12
F5000
sg13
F4800
sg14
F1000
sg15
F1250
sbag2
(g3
g4
NtRp3349
(dp3350
g7
F4200
sg8
F4000
sg9
(dp3351
g11
I1000
ssg12
F5200
sg13
F5000
sg14
F1000
sg15
F1250
sbag2
(g3
g4
NtRp3352
(dp3353
g7
F4200
sg8
F4000
sg9
(dp3354
g11
I1000
ssg12
F5400
sg13
F5200
sg14
F1000
sg15
F1250
sbag2
(g3
g4
NtRp3355
(dp3356
g7
F4200
sg8
F4000
sg9
(dp3357
g11
I1000
ssg12
F5600
sg13
F5400
sg14
F1000
sg15
F1250
sbag2
(g3
g4
NtRp3358
(dp3359
g7
F4400
sg8
F4200
sg9
(dp3360
g11
I1000
ssg12
F3200
sg13
F3000
sg14
F1000
sg15
F1250
sbag2
(g3
g4
NtRp3361
(dp3362
g7
F4400
sg8
F4200
sg9
(dp3363
g11
I1000
ssg12
F3400
sg13
F3200
sg14
F1000
sg15
F1250
sbag2
(g3
g4
NtRp3364
(dp3365
g7
F4400
sg8
F4200
sg9
(dp3366
g11
I1000
ssg12
F3600
sg13
F3400
sg14
F1000
sg15
F1250
sbag2
(g3
g4
NtRp3367
(dp3368
g7
F4400
sg8
F4200
sg9
(dp3369
g11
I1000
ssg12
F3800
sg13
F3600
sg14
F1000
sg15
F1250
sbag2
(g3
g4
NtRp3370
(dp3371
g7
F4400
sg8
F4200
sg9
(dp3372
g11
I1000
ssg12
F4000
sg13
F3800
sg14
F1000
sg15
F1250
sbag2
(g3
g4
NtRp3373
(dp3374
g7
F4400
sg8
F4200
sg9
(dp3375
g11
I1000
ssg12
F4200
sg13
F4000
sg14
F1000
sg15
F1250
sbag2
(g3
g4
NtRp3376
(dp3377
g7
F4400
sg8
F4200
sg9
(dp3378
g11
I1000
ssg12
F4400
sg13
F4200
sg14
F1000
sg15
F1250
sbag2
(g3
g4
NtRp3379
(dp3380
g7
F4400
sg8
F4200
sg9
(dp3381
g11
I1000
ssg12
F4600
sg13
F4400
sg14
F1000
sg15
F1250
sbag2
(g3
g4
NtRp3382
(dp3383
g7
F4400
sg8
F4200
sg9
(dp3384
g11
I1000
ssg12
F4800
sg13
F4600
sg14
F1000
sg15
F1250
sbag2
(g3
g4
NtRp3385
(dp3386
g7
F4400
sg8
F4200
sg9
(dp3387
g11
I1000
ssg12
F5000
sg13
F4800
sg14
F1000
sg15
F1250
sbag2
(g3
g4
NtRp3388
(dp3389
g7
F4400
sg8
F4200
sg9
(dp3390
g11
I1000
ssg12
F5200
sg13
F5000
sg14
F1000
sg15
F1250
sbag2
(g3
g4
NtRp3391
(dp3392
g7
F4400
sg8
F4200
sg9
(dp3393
g11
I1000
ssg12
F5400
sg13
F5200
sg14
F1000
sg15
F1250
sbag2
(g3
g4
NtRp3394
(dp3395
g7
F4400
sg8
F4200
sg9
(dp3396
g11
I1000
ssg12
F5600
sg13
F5400
sg14
F1000
sg15
F1250
sbag2
(g3
g4
NtRp3397
(dp3398
g7
F4400
sg8
F4200
sg9
(dp3399
g11
I1000
ssg12
F5800
sg13
F5600
sg14
F1000
sg15
F1250
sbag2
(g3
g4
NtRp3400
(dp3401
g7
F4600
sg8
F4400
sg9
(dp3402
g11
I1000
ssg12
F3600
sg13
F3400
sg14
F1000
sg15
F1250
sbag2
(g3
g4
NtRp3403
(dp3404
g7
F4600
sg8
F4400
sg9
(dp3405
g11
I1000
ssg12
F3800
sg13
F3600
sg14
F1000
sg15
F1250
sbag2
(g3
g4
NtRp3406
(dp3407
g7
F4600
sg8
F4400
sg9
(dp3408
g11
I1000
ssg12
F4000
sg13
F3800
sg14
F1000
sg15
F1250
sbag2
(g3
g4
NtRp3409
(dp3410
g7
F4600
sg8
F4400
sg9
(dp3411
g11
I1000
ssg12
F4200
sg13
F4000
sg14
F1000
sg15
F1250
sbag2
(g3
g4
NtRp3412
(dp3413
g7
F4600
sg8
F4400
sg9
(dp3414
g11
I1000
ssg12
F4400
sg13
F4200
sg14
F1000
sg15
F1250
sbag2
(g3
g4
NtRp3415
(dp3416
g7
F4600
sg8
F4400
sg9
(dp3417
g11
I1000
ssg12
F4600
sg13
F4400
sg14
F1000
sg15
F1250
sbag2
(g3
g4
NtRp3418
(dp3419
g7
F4600
sg8
F4400
sg9
(dp3420
g11
I1000
ssg12
F4800
sg13
F4600
sg14
F1000
sg15
F1250
sbag2
(g3
g4
NtRp3421
(dp3422
g7
F4600
sg8
F4400
sg9
(dp3423
g11
I1000
ssg12
F5000
sg13
F4800
sg14
F1000
sg15
F1250
sbag2
(g3
g4
NtRp3424
(dp3425
g7
F4600
sg8
F4400
sg9
(dp3426
g11
I1000
ssg12
F5200
sg13
F5000
sg14
F1000
sg15
F1250
sbag2
(g3
g4
NtRp3427
(dp3428
g7
F4600
sg8
F4400
sg9
(dp3429
g11
I1000
ssg12
F5400
sg13
F5200
sg14
F1000
sg15
F1250
sbag2
(g3
g4
NtRp3430
(dp3431
g7
F4600
sg8
F4400
sg9
(dp3432
g11
I1000
ssg12
F5600
sg13
F5400
sg14
F1000
sg15
F1250
sbag2
(g3
g4
NtRp3433
(dp3434
g7
F4600
sg8
F4400
sg9
(dp3435
g11
I1000
ssg12
F5800
sg13
F5600
sg14
F1000
sg15
F1250
sbag2
(g3
g4
NtRp3436
(dp3437
g7
F4600
sg8
F4400
sg9
(dp3438
g11
I1000
ssg12
F6000
sg13
F5800
sg14
F1000
sg15
F1250
sbag2
(g3
g4
NtRp3439
(dp3440
g7
F4800
sg8
F4600
sg9
(dp3441
g11
I1000
ssg12
F3800
sg13
F3600
sg14
F1000
sg15
F1250
sbag2
(g3
g4
NtRp3442
(dp3443
g7
F4800
sg8
F4600
sg9
(dp3444
g11
I1000
ssg12
F4000
sg13
F3800
sg14
F1000
sg15
F1250
sbag2
(g3
g4
NtRp3445
(dp3446
g7
F4800
sg8
F4600
sg9
(dp3447
g11
I1000
ssg12
F4200
sg13
F4000
sg14
F1000
sg15
F1250
sbag2
(g3
g4
NtRp3448
(dp3449
g7
F4800
sg8
F4600
sg9
(dp3450
g11
I1000
ssg12
F4400
sg13
F4200
sg14
F1000
sg15
F1250
sbag2
(g3
g4
NtRp3451
(dp3452
g7
F4800
sg8
F4600
sg9
(dp3453
g11
I1000
ssg12
F4600
sg13
F4400
sg14
F1000
sg15
F1250
sbag2
(g3
g4
NtRp3454
(dp3455
g7
F4800
sg8
F4600
sg9
(dp3456
g11
I1000
ssg12
F4800
sg13
F4600
sg14
F1000
sg15
F1250
sbag2
(g3
g4
NtRp3457
(dp3458
g7
F4800
sg8
F4600
sg9
(dp3459
g11
I1000
ssg12
F5000
sg13
F4800
sg14
F1000
sg15
F1250
sbag2
(g3
g4
NtRp3460
(dp3461
g7
F4800
sg8
F4600
sg9
(dp3462
g11
I1000
ssg12
F5200
sg13
F5000
sg14
F1000
sg15
F1250
sbag2
(g3
g4
NtRp3463
(dp3464
g7
F4800
sg8
F4600
sg9
(dp3465
g11
I1000
ssg12
F5400
sg13
F5200
sg14
F1000
sg15
F1250
sbag2
(g3
g4
NtRp3466
(dp3467
g7
F4800
sg8
F4600
sg9
(dp3468
g11
I1000
ssg12
F5600
sg13
F5400
sg14
F1000
sg15
F1250
sbag2
(g3
g4
NtRp3469
(dp3470
g7
F4800
sg8
F4600
sg9
(dp3471
g11
I1000
ssg12
F5800
sg13
F5600
sg14
F1000
sg15
F1250
sbag2
(g3
g4
NtRp3472
(dp3473
g7
F4800
sg8
F4600
sg9
(dp3474
g11
I1000
ssg12
F6000
sg13
F5800
sg14
F1000
sg15
F1250
sbag2
(g3
g4
NtRp3475
(dp3476
g7
F5000
sg8
F4800
sg9
(dp3477
g11
I1000
ssg12
F4000
sg13
F3800
sg14
F1000
sg15
F1250
sbag2
(g3
g4
NtRp3478
(dp3479
g7
F5000
sg8
F4800
sg9
(dp3480
g11
I1000
ssg12
F4200
sg13
F4000
sg14
F1000
sg15
F1250
sbag2
(g3
g4
NtRp3481
(dp3482
g7
F5000
sg8
F4800
sg9
(dp3483
g11
I1000
ssg12
F4400
sg13
F4200
sg14
F1000
sg15
F1250
sbag2
(g3
g4
NtRp3484
(dp3485
g7
F5000
sg8
F4800
sg9
(dp3486
g11
I1000
ssg12
F4600
sg13
F4400
sg14
F1000
sg15
F1250
sbag2
(g3
g4
NtRp3487
(dp3488
g7
F5000
sg8
F4800
sg9
(dp3489
g11
I1000
ssg12
F4800
sg13
F4600
sg14
F1000
sg15
F1250
sbag2
(g3
g4
NtRp3490
(dp3491
g7
F5000
sg8
F4800
sg9
(dp3492
g11
I1000
ssg12
F5000
sg13
F4800
sg14
F1000
sg15
F1250
sbag2
(g3
g4
NtRp3493
(dp3494
g7
F5000
sg8
F4800
sg9
(dp3495
g11
I1000
ssg12
F5200
sg13
F5000
sg14
F1000
sg15
F1250
sbag2
(g3
g4
NtRp3496
(dp3497
g7
F5000
sg8
F4800
sg9
(dp3498
g11
I1000
ssg12
F5400
sg13
F5200
sg14
F1000
sg15
F1250
sbag2
(g3
g4
NtRp3499
(dp3500
g7
F5000
sg8
F4800
sg9
(dp3501
g11
I1000
ssg12
F5600
sg13
F5400
sg14
F1000
sg15
F1250
sbag2
(g3
g4
NtRp3502
(dp3503
g7
F5000
sg8
F4800
sg9
(dp3504
g11
I1000
ssg12
F5800
sg13
F5600
sg14
F1000
sg15
F1250
sbag2
(g3
g4
NtRp3505
(dp3506
g7
F5000
sg8
F4800
sg9
(dp3507
g11
I1000
ssg12
F6000
sg13
F5800
sg14
F1000
sg15
F1250
sbag2
(g3
g4
NtRp3508
(dp3509
g7
F5000
sg8
F4800
sg9
(dp3510
g11
I1000
ssg12
F6200
sg13
F6000
sg14
F1000
sg15
F1250
sbag2
(g3
g4
NtRp3511
(dp3512
g7
F5200
sg8
F5000
sg9
(dp3513
g11
I1000
ssg12
F4200
sg13
F4000
sg14
F1000
sg15
F1250
sbag2
(g3
g4
NtRp3514
(dp3515
g7
F5200
sg8
F5000
sg9
(dp3516
g11
I1000
ssg12
F4400
sg13
F4200
sg14
F1000
sg15
F1250
sbag2
(g3
g4
NtRp3517
(dp3518
g7
F5200
sg8
F5000
sg9
(dp3519
g11
I1000
ssg12
F4600
sg13
F4400
sg14
F1000
sg15
F1250
sbag2
(g3
g4
NtRp3520
(dp3521
g7
F5200
sg8
F5000
sg9
(dp3522
g11
I1000
ssg12
F4800
sg13
F4600
sg14
F1000
sg15
F1250
sbag2
(g3
g4
NtRp3523
(dp3524
g7
F5200
sg8
F5000
sg9
(dp3525
g11
I1000
ssg12
F5000
sg13
F4800
sg14
F1000
sg15
F1250
sbag2
(g3
g4
NtRp3526
(dp3527
g7
F5200
sg8
F5000
sg9
(dp3528
g11
I1000
ssg12
F5200
sg13
F5000
sg14
F1000
sg15
F1250
sbag2
(g3
g4
NtRp3529
(dp3530
g7
F5200
sg8
F5000
sg9
(dp3531
g11
I1000
ssg12
F5400
sg13
F5200
sg14
F1000
sg15
F1250
sbag2
(g3
g4
NtRp3532
(dp3533
g7
F5200
sg8
F5000
sg9
(dp3534
g11
I1000
ssg12
F5600
sg13
F5400
sg14
F1000
sg15
F1250
sbag2
(g3
g4
NtRp3535
(dp3536
g7
F5200
sg8
F5000
sg9
(dp3537
g11
I1000
ssg12
F5800
sg13
F5600
sg14
F1000
sg15
F1250
sbag2
(g3
g4
NtRp3538
(dp3539
g7
F5200
sg8
F5000
sg9
(dp3540
g11
I1000
ssg12
F6000
sg13
F5800
sg14
F1000
sg15
F1250
sbag2
(g3
g4
NtRp3541
(dp3542
g7
F5200
sg8
F5000
sg9
(dp3543
g11
I1000
ssg12
F6200
sg13
F6000
sg14
F1000
sg15
F1250
sbag2
(g3
g4
NtRp3544
(dp3545
g7
F5200
sg8
F5000
sg9
(dp3546
g11
I1000
ssg12
F6400
sg13
F6200
sg14
F1000
sg15
F1250
sbag2
(g3
g4
NtRp3547
(dp3548
g7
F5400
sg8
F5200
sg9
(dp3549
g11
I1000
ssg12
F4400
sg13
F4200
sg14
F1000
sg15
F1250
sbag2
(g3
g4
NtRp3550
(dp3551
g7
F5400
sg8
F5200
sg9
(dp3552
g11
I1000
ssg12
F4600
sg13
F4400
sg14
F1000
sg15
F1250
sbag2
(g3
g4
NtRp3553
(dp3554
g7
F5400
sg8
F5200
sg9
(dp3555
g11
I1000
ssg12
F4800
sg13
F4600
sg14
F1000
sg15
F1250
sbag2
(g3
g4
NtRp3556
(dp3557
g7
F5400
sg8
F5200
sg9
(dp3558
g11
I1000
ssg12
F5000
sg13
F4800
sg14
F1000
sg15
F1250
sbag2
(g3
g4
NtRp3559
(dp3560
g7
F5400
sg8
F5200
sg9
(dp3561
g11
I1000
ssg12
F5200
sg13
F5000
sg14
F1000
sg15
F1250
sbag2
(g3
g4
NtRp3562
(dp3563
g7
F5400
sg8
F5200
sg9
(dp3564
g11
I1000
ssg12
F5400
sg13
F5200
sg14
F1000
sg15
F1250
sbag2
(g3
g4
NtRp3565
(dp3566
g7
F5400
sg8
F5200
sg9
(dp3567
g11
I1000
ssg12
F5600
sg13
F5400
sg14
F1000
sg15
F1250
sbag2
(g3
g4
NtRp3568
(dp3569
g7
F5400
sg8
F5200
sg9
(dp3570
g11
I1000
ssg12
F5800
sg13
F5600
sg14
F1000
sg15
F1250
sbag2
(g3
g4
NtRp3571
(dp3572
g7
F5400
sg8
F5200
sg9
(dp3573
g11
I1000
ssg12
F6000
sg13
F5800
sg14
F1000
sg15
F1250
sbag2
(g3
g4
NtRp3574
(dp3575
g7
F5400
sg8
F5200
sg9
(dp3576
g11
I1000
ssg12
F6200
sg13
F6000
sg14
F1000
sg15
F1250
sbag2
(g3
g4
NtRp3577
(dp3578
g7
F5400
sg8
F5200
sg9
(dp3579
g11
I1000
ssg12
F6400
sg13
F6200
sg14
F1000
sg15
F1250
sbag2
(g3
g4
NtRp3580
(dp3581
g7
F5600
sg8
F5400
sg9
(dp3582
g11
I1000
ssg12
F4600
sg13
F4400
sg14
F1000
sg15
F1250
sbag2
(g3
g4
NtRp3583
(dp3584
g7
F5600
sg8
F5400
sg9
(dp3585
g11
I1000
ssg12
F4800
sg13
F4600
sg14
F1000
sg15
F1250
sbag2
(g3
g4
NtRp3586
(dp3587
g7
F5600
sg8
F5400
sg9
(dp3588
g11
I1000
ssg12
F5000
sg13
F4800
sg14
F1000
sg15
F1250
sbag2
(g3
g4
NtRp3589
(dp3590
g7
F5600
sg8
F5400
sg9
(dp3591
g11
I1000
ssg12
F5200
sg13
F5000
sg14
F1000
sg15
F1250
sbag2
(g3
g4
NtRp3592
(dp3593
g7
F5600
sg8
F5400
sg9
(dp3594
g11
I1000
ssg12
F5400
sg13
F5200
sg14
F1000
sg15
F1250
sbag2
(g3
g4
NtRp3595
(dp3596
g7
F5600
sg8
F5400
sg9
(dp3597
g11
I1000
ssg12
F5600
sg13
F5400
sg14
F1000
sg15
F1250
sbag2
(g3
g4
NtRp3598
(dp3599
g7
F5600
sg8
F5400
sg9
(dp3600
g11
I1000
ssg12
F5800
sg13
F5600
sg14
F1000
sg15
F1250
sbag2
(g3
g4
NtRp3601
(dp3602
g7
F5600
sg8
F5400
sg9
(dp3603
g11
I1000
ssg12
F6000
sg13
F5800
sg14
F1000
sg15
F1250
sbag2
(g3
g4
NtRp3604
(dp3605
g7
F5600
sg8
F5400
sg9
(dp3606
g11
I1000
ssg12
F6200
sg13
F6000
sg14
F1000
sg15
F1250
sbag2
(g3
g4
NtRp3607
(dp3608
g7
F5600
sg8
F5400
sg9
(dp3609
g11
I1000
ssg12
F6400
sg13
F6200
sg14
F1000
sg15
F1250
sbag2
(g3
g4
NtRp3610
(dp3611
g7
F5600
sg8
F5400
sg9
(dp3612
g11
I1000
ssg12
F6600
sg13
F6400
sg14
F1000
sg15
F1250
sbag2
(g3
g4
NtRp3613
(dp3614
g7
F5800
sg8
F5600
sg9
(dp3615
g11
I1000
ssg12
F4800
sg13
F4600
sg14
F1000
sg15
F1250
sbag2
(g3
g4
NtRp3616
(dp3617
g7
F5800
sg8
F5600
sg9
(dp3618
g11
I1000
ssg12
F5000
sg13
F4800
sg14
F1000
sg15
F1250
sbag2
(g3
g4
NtRp3619
(dp3620
g7
F5800
sg8
F5600
sg9
(dp3621
g11
I1000
ssg12
F5200
sg13
F5000
sg14
F1000
sg15
F1250
sbag2
(g3
g4
NtRp3622
(dp3623
g7
F5800
sg8
F5600
sg9
(dp3624
g11
I1000
ssg12
F5400
sg13
F5200
sg14
F1000
sg15
F1250
sbag2
(g3
g4
NtRp3625
(dp3626
g7
F5800
sg8
F5600
sg9
(dp3627
g11
I1000
ssg12
F5600
sg13
F5400
sg14
F1000
sg15
F1250
sbag2
(g3
g4
NtRp3628
(dp3629
g7
F5800
sg8
F5600
sg9
(dp3630
g11
I1000
ssg12
F5800
sg13
F5600
sg14
F1000
sg15
F1250
sbag2
(g3
g4
NtRp3631
(dp3632
g7
F5800
sg8
F5600
sg9
(dp3633
g11
I1000
ssg12
F6000
sg13
F5800
sg14
F1000
sg15
F1250
sbag2
(g3
g4
NtRp3634
(dp3635
g7
F5800
sg8
F5600
sg9
(dp3636
g11
I1000
ssg12
F6200
sg13
F6000
sg14
F1000
sg15
F1250
sbag2
(g3
g4
NtRp3637
(dp3638
g7
F5800
sg8
F5600
sg9
(dp3639
g11
I1000
ssg12
F6400
sg13
F6200
sg14
F1000
sg15
F1250
sbag2
(g3
g4
NtRp3640
(dp3641
g7
F5800
sg8
F5600
sg9
(dp3642
g11
I1000
ssg12
F6600
sg13
F6400
sg14
F1000
sg15
F1250
sbag2
(g3
g4
NtRp3643
(dp3644
g7
F6000
sg8
F5800
sg9
(dp3645
g11
I1000
ssg12
F5000
sg13
F4800
sg14
F1000
sg15
F1250
sbag2
(g3
g4
NtRp3646
(dp3647
g7
F6000
sg8
F5800
sg9
(dp3648
g11
I1000
ssg12
F5200
sg13
F5000
sg14
F1000
sg15
F1250
sbag2
(g3
g4
NtRp3649
(dp3650
g7
F6000
sg8
F5800
sg9
(dp3651
g11
I1000
ssg12
F5400
sg13
F5200
sg14
F1000
sg15
F1250
sbag2
(g3
g4
NtRp3652
(dp3653
g7
F6000
sg8
F5800
sg9
(dp3654
g11
I1000
ssg12
F5600
sg13
F5400
sg14
F1000
sg15
F1250
sbag2
(g3
g4
NtRp3655
(dp3656
g7
F6000
sg8
F5800
sg9
(dp3657
g11
I1000
ssg12
F5800
sg13
F5600
sg14
F1000
sg15
F1250
sbag2
(g3
g4
NtRp3658
(dp3659
g7
F6000
sg8
F5800
sg9
(dp3660
g11
I1000
ssg12
F6000
sg13
F5800
sg14
F1000
sg15
F1250
sbag2
(g3
g4
NtRp3661
(dp3662
g7
F6000
sg8
F5800
sg9
(dp3663
g11
I1000
ssg12
F6200
sg13
F6000
sg14
F1000
sg15
F1250
sbag2
(g3
g4
NtRp3664
(dp3665
g7
F6000
sg8
F5800
sg9
(dp3666
g11
I1000
ssg12
F6400
sg13
F6200
sg14
F1000
sg15
F1250
sbag2
(g3
g4
NtRp3667
(dp3668
g7
F6000
sg8
F5800
sg9
(dp3669
g11
I1000
ssg12
F6600
sg13
F6400
sg14
F1000
sg15
F1250
sbag2
(g3
g4
NtRp3670
(dp3671
g7
F6000
sg8
F5800
sg9
(dp3672
g11
I1000
ssg12
F6800
sg13
F6600
sg14
F1000
sg15
F1250
sbag2
(g3
g4
NtRp3673
(dp3674
g7
F6200
sg8
F6000
sg9
(dp3675
g11
I1000
ssg12
F5200
sg13
F5000
sg14
F1000
sg15
F1250
sbag2
(g3
g4
NtRp3676
(dp3677
g7
F6200
sg8
F6000
sg9
(dp3678
g11
I1000
ssg12
F5400
sg13
F5200
sg14
F1000
sg15
F1250
sbag2
(g3
g4
NtRp3679
(dp3680
g7
F6200
sg8
F6000
sg9
(dp3681
g11
I1000
ssg12
F5600
sg13
F5400
sg14
F1000
sg15
F1250
sbag2
(g3
g4
NtRp3682
(dp3683
g7
F6200
sg8
F6000
sg9
(dp3684
g11
I1000
ssg12
F5800
sg13
F5600
sg14
F1000
sg15
F1250
sbag2
(g3
g4
NtRp3685
(dp3686
g7
F6200
sg8
F6000
sg9
(dp3687
g11
I1000
ssg12
F6000
sg13
F5800
sg14
F1000
sg15
F1250
sbag2
(g3
g4
NtRp3688
(dp3689
g7
F6200
sg8
F6000
sg9
(dp3690
g11
I1000
ssg12
F6200
sg13
F6000
sg14
F1000
sg15
F1250
sbag2
(g3
g4
NtRp3691
(dp3692
g7
F6200
sg8
F6000
sg9
(dp3693
g11
I1000
ssg12
F6400
sg13
F6200
sg14
F1000
sg15
F1250
sbag2
(g3
g4
NtRp3694
(dp3695
g7
F6200
sg8
F6000
sg9
(dp3696
g11
I1000
ssg12
F6600
sg13
F6400
sg14
F1000
sg15
F1250
sbag2
(g3
g4
NtRp3697
(dp3698
g7
F6400
sg8
F6200
sg9
(dp3699
g11
I1000
ssg12
F6200
sg13
F6000
sg14
F1000
sg15
F1250
sbag2
(g3
g4
NtRp3700
(dp3701
g7
F6400
sg8
F6200
sg9
(dp3702
g11
I1000
ssg12
F6600
sg13
F6400
sg14
F1000
sg15
F1250
sbag2
(g3
g4
NtRp3703
(dp3704
g7
F3000
sg8
F2800
sg9
(dp3705
g11
I1000
ssg12
F3400
sg13
F3200
sg14
F1250
sg15
F1500
sbag2
(g3
g4
NtRp3706
(dp3707
g7
F3000
sg8
F2800
sg9
(dp3708
g11
I1000
ssg12
F3600
sg13
F3400
sg14
F1250
sg15
F1500
sbag2
(g3
g4
NtRp3709
(dp3710
g7
F3000
sg8
F2800
sg9
(dp3711
g11
I1000
ssg12
F3800
sg13
F3600
sg14
F1250
sg15
F1500
sbag2
(g3
g4
NtRp3712
(dp3713
g7
F3000
sg8
F2800
sg9
(dp3714
g11
I1000
ssg12
F4000
sg13
F3800
sg14
F1250
sg15
F1500
sbag2
(g3
g4
NtRp3715
(dp3716
g7
F3200
sg8
F3000
sg9
(dp3717
g11
I1000
ssg12
F3200
sg13
F3000
sg14
F1250
sg15
F1500
sbag2
(g3
g4
NtRp3718
(dp3719
g7
F3200
sg8
F3000
sg9
(dp3720
g11
I1000
ssg12
F3400
sg13
F3200
sg14
F1250
sg15
F1500
sbag2
(g3
g4
NtRp3721
(dp3722
g7
F3200
sg8
F3000
sg9
(dp3723
g11
I1000
ssg12
F3600
sg13
F3400
sg14
F1250
sg15
F1500
sbag2
(g3
g4
NtRp3724
(dp3725
g7
F3200
sg8
F3000
sg9
(dp3726
g11
I1000
ssg12
F3800
sg13
F3600
sg14
F1250
sg15
F1500
sbag2
(g3
g4
NtRp3727
(dp3728
g7
F3200
sg8
F3000
sg9
(dp3729
g11
I1000
ssg12
F4000
sg13
F3800
sg14
F1250
sg15
F1500
sbag2
(g3
g4
NtRp3730
(dp3731
g7
F3200
sg8
F3000
sg9
(dp3732
g11
I1000
ssg12
F4200
sg13
F4000
sg14
F1250
sg15
F1500
sbag2
(g3
g4
NtRp3733
(dp3734
g7
F3200
sg8
F3000
sg9
(dp3735
g11
I1000
ssg12
F4400
sg13
F4200
sg14
F1250
sg15
F1500
sbag2
(g3
g4
NtRp3736
(dp3737
g7
F3400
sg8
F3200
sg9
(dp3738
g11
I1000
ssg12
F3200
sg13
F3000
sg14
F1250
sg15
F1500
sbag2
(g3
g4
NtRp3739
(dp3740
g7
F3400
sg8
F3200
sg9
(dp3741
g11
I1000
ssg12
F3400
sg13
F3200
sg14
F1250
sg15
F1500
sbag2
(g3
g4
NtRp3742
(dp3743
g7
F3400
sg8
F3200
sg9
(dp3744
g11
I1000
ssg12
F3600
sg13
F3400
sg14
F1250
sg15
F1500
sbag2
(g3
g4
NtRp3745
(dp3746
g7
F3400
sg8
F3200
sg9
(dp3747
g11
I1000
ssg12
F3800
sg13
F3600
sg14
F1250
sg15
F1500
sbag2
(g3
g4
NtRp3748
(dp3749
g7
F3400
sg8
F3200
sg9
(dp3750
g11
I1000
ssg12
F4000
sg13
F3800
sg14
F1250
sg15
F1500
sbag2
(g3
g4
NtRp3751
(dp3752
g7
F3400
sg8
F3200
sg9
(dp3753
g11
I1000
ssg12
F4200
sg13
F4000
sg14
F1250
sg15
F1500
sbag2
(g3
g4
NtRp3754
(dp3755
g7
F3400
sg8
F3200
sg9
(dp3756
g11
I1000
ssg12
F4400
sg13
F4200
sg14
F1250
sg15
F1500
sbag2
(g3
g4
NtRp3757
(dp3758
g7
F3400
sg8
F3200
sg9
(dp3759
g11
I1000
ssg12
F4600
sg13
F4400
sg14
F1250
sg15
F1500
sbag2
(g3
g4
NtRp3760
(dp3761
g7
F3600
sg8
F3400
sg9
(dp3762
g11
I1000
ssg12
F3000
sg13
F2800
sg14
F1250
sg15
F1500
sbag2
(g3
g4
NtRp3763
(dp3764
g7
F3600
sg8
F3400
sg9
(dp3765
g11
I1000
ssg12
F3200
sg13
F3000
sg14
F1250
sg15
F1500
sbag2
(g3
g4
NtRp3766
(dp3767
g7
F3600
sg8
F3400
sg9
(dp3768
g11
I1000
ssg12
F3400
sg13
F3200
sg14
F1250
sg15
F1500
sbag2
(g3
g4
NtRp3769
(dp3770
g7
F3600
sg8
F3400
sg9
(dp3771
g11
I1000
ssg12
F3600
sg13
F3400
sg14
F1250
sg15
F1500
sbag2
(g3
g4
NtRp3772
(dp3773
g7
F3600
sg8
F3400
sg9
(dp3774
g11
I1000
ssg12
F3800
sg13
F3600
sg14
F1250
sg15
F1500
sbag2
(g3
g4
NtRp3775
(dp3776
g7
F3600
sg8
F3400
sg9
(dp3777
g11
I1000
ssg12
F4000
sg13
F3800
sg14
F1250
sg15
F1500
sbag2
(g3
g4
NtRp3778
(dp3779
g7
F3600
sg8
F3400
sg9
(dp3780
g11
I1000
ssg12
F4200
sg13
F4000
sg14
F1250
sg15
F1500
sbag2
(g3
g4
NtRp3781
(dp3782
g7
F3600
sg8
F3400
sg9
(dp3783
g11
I1000
ssg12
F4400
sg13
F4200
sg14
F1250
sg15
F1500
sbag2
(g3
g4
NtRp3784
(dp3785
g7
F3600
sg8
F3400
sg9
(dp3786
g11
I1000
ssg12
F4600
sg13
F4400
sg14
F1250
sg15
F1500
sbag2
(g3
g4
NtRp3787
(dp3788
g7
F3600
sg8
F3400
sg9
(dp3789
g11
I1000
ssg12
F4800
sg13
F4600
sg14
F1250
sg15
F1500
sbag2
(g3
g4
NtRp3790
(dp3791
g7
F3800
sg8
F3600
sg9
(dp3792
g11
I1000
ssg12
F3000
sg13
F2800
sg14
F1250
sg15
F1500
sbag2
(g3
g4
NtRp3793
(dp3794
g7
F3800
sg8
F3600
sg9
(dp3795
g11
I1000
ssg12
F3200
sg13
F3000
sg14
F1250
sg15
F1500
sbag2
(g3
g4
NtRp3796
(dp3797
g7
F3800
sg8
F3600
sg9
(dp3798
g11
I1000
ssg12
F3400
sg13
F3200
sg14
F1250
sg15
F1500
sbag2
(g3
g4
NtRp3799
(dp3800
g7
F3800
sg8
F3600
sg9
(dp3801
g11
I1000
ssg12
F3600
sg13
F3400
sg14
F1250
sg15
F1500
sbag2
(g3
g4
NtRp3802
(dp3803
g7
F3800
sg8
F3600
sg9
(dp3804
g11
I1000
ssg12
F3800
sg13
F3600
sg14
F1250
sg15
F1500
sbag2
(g3
g4
NtRp3805
(dp3806
g7
F3800
sg8
F3600
sg9
(dp3807
g11
I1000
ssg12
F4000
sg13
F3800
sg14
F1250
sg15
F1500
sbag2
(g3
g4
NtRp3808
(dp3809
g7
F3800
sg8
F3600
sg9
(dp3810
g11
I1000
ssg12
F4200
sg13
F4000
sg14
F1250
sg15
F1500
sbag2
(g3
g4
NtRp3811
(dp3812
g7
F3800
sg8
F3600
sg9
(dp3813
g11
I1000
ssg12
F4400
sg13
F4200
sg14
F1250
sg15
F1500
sbag2
(g3
g4
NtRp3814
(dp3815
g7
F3800
sg8
F3600
sg9
(dp3816
g11
I1000
ssg12
F4600
sg13
F4400
sg14
F1250
sg15
F1500
sbag2
(g3
g4
NtRp3817
(dp3818
g7
F3800
sg8
F3600
sg9
(dp3819
g11
I1000
ssg12
F4800
sg13
F4600
sg14
F1250
sg15
F1500
sbag2
(g3
g4
NtRp3820
(dp3821
g7
F3800
sg8
F3600
sg9
(dp3822
g11
I1000
ssg12
F5000
sg13
F4800
sg14
F1250
sg15
F1500
sbag2
(g3
g4
NtRp3823
(dp3824
g7
F3800
sg8
F3600
sg9
(dp3825
g11
I1000
ssg12
F5200
sg13
F5000
sg14
F1250
sg15
F1500
sbag2
(g3
g4
NtRp3826
(dp3827
g7
F4000
sg8
F3800
sg9
(dp3828
g11
I1000
ssg12
F3200
sg13
F3000
sg14
F1250
sg15
F1500
sbag2
(g3
g4
NtRp3829
(dp3830
g7
F4000
sg8
F3800
sg9
(dp3831
g11
I1000
ssg12
F3400
sg13
F3200
sg14
F1250
sg15
F1500
sbag2
(g3
g4
NtRp3832
(dp3833
g7
F4000
sg8
F3800
sg9
(dp3834
g11
I1000
ssg12
F3600
sg13
F3400
sg14
F1250
sg15
F1500
sbag2
(g3
g4
NtRp3835
(dp3836
g7
F4000
sg8
F3800
sg9
(dp3837
g11
I1000
ssg12
F3800
sg13
F3600
sg14
F1250
sg15
F1500
sbag2
(g3
g4
NtRp3838
(dp3839
g7
F4000
sg8
F3800
sg9
(dp3840
g11
I1000
ssg12
F4000
sg13
F3800
sg14
F1250
sg15
F1500
sbag2
(g3
g4
NtRp3841
(dp3842
g7
F4000
sg8
F3800
sg9
(dp3843
g11
I1000
ssg12
F4200
sg13
F4000
sg14
F1250
sg15
F1500
sbag2
(g3
g4
NtRp3844
(dp3845
g7
F4000
sg8
F3800
sg9
(dp3846
g11
I1000
ssg12
F4400
sg13
F4200
sg14
F1250
sg15
F1500
sbag2
(g3
g4
NtRp3847
(dp3848
g7
F4000
sg8
F3800
sg9
(dp3849
g11
I1000
ssg12
F4600
sg13
F4400
sg14
F1250
sg15
F1500
sbag2
(g3
g4
NtRp3850
(dp3851
g7
F4000
sg8
F3800
sg9
(dp3852
g11
I1000
ssg12
F4800
sg13
F4600
sg14
F1250
sg15
F1500
sbag2
(g3
g4
NtRp3853
(dp3854
g7
F4000
sg8
F3800
sg9
(dp3855
g11
I1000
ssg12
F5000
sg13
F4800
sg14
F1250
sg15
F1500
sbag2
(g3
g4
NtRp3856
(dp3857
g7
F4000
sg8
F3800
sg9
(dp3858
g11
I1000
ssg12
F5200
sg13
F5000
sg14
F1250
sg15
F1500
sbag2
(g3
g4
NtRp3859
(dp3860
g7
F4000
sg8
F3800
sg9
(dp3861
g11
I1000
ssg12
F5400
sg13
F5200
sg14
F1250
sg15
F1500
sbag2
(g3
g4
NtRp3862
(dp3863
g7
F4200
sg8
F4000
sg9
(dp3864
g11
I1000
ssg12
F3200
sg13
F3000
sg14
F1250
sg15
F1500
sbag2
(g3
g4
NtRp3865
(dp3866
g7
F4200
sg8
F4000
sg9
(dp3867
g11
I1000
ssg12
F3400
sg13
F3200
sg14
F1250
sg15
F1500
sbag2
(g3
g4
NtRp3868
(dp3869
g7
F4200
sg8
F4000
sg9
(dp3870
g11
I1000
ssg12
F3600
sg13
F3400
sg14
F1250
sg15
F1500
sbag2
(g3
g4
NtRp3871
(dp3872
g7
F4200
sg8
F4000
sg9
(dp3873
g11
I1000
ssg12
F3800
sg13
F3600
sg14
F1250
sg15
F1500
sbag2
(g3
g4
NtRp3874
(dp3875
g7
F4200
sg8
F4000
sg9
(dp3876
g11
I1000
ssg12
F4000
sg13
F3800
sg14
F1250
sg15
F1500
sbag2
(g3
g4
NtRp3877
(dp3878
g7
F4200
sg8
F4000
sg9
(dp3879
g11
I1000
ssg12
F4200
sg13
F4000
sg14
F1250
sg15
F1500
sbag2
(g3
g4
NtRp3880
(dp3881
g7
F4200
sg8
F4000
sg9
(dp3882
g11
I1000
ssg12
F4400
sg13
F4200
sg14
F1250
sg15
F1500
sbag2
(g3
g4
NtRp3883
(dp3884
g7
F4200
sg8
F4000
sg9
(dp3885
g11
I1000
ssg12
F4600
sg13
F4400
sg14
F1250
sg15
F1500
sbag2
(g3
g4
NtRp3886
(dp3887
g7
F4200
sg8
F4000
sg9
(dp3888
g11
I1000
ssg12
F4800
sg13
F4600
sg14
F1250
sg15
F1500
sbag2
(g3
g4
NtRp3889
(dp3890
g7
F4200
sg8
F4000
sg9
(dp3891
g11
I1000
ssg12
F5000
sg13
F4800
sg14
F1250
sg15
F1500
sbag2
(g3
g4
NtRp3892
(dp3893
g7
F4200
sg8
F4000
sg9
(dp3894
g11
I1000
ssg12
F5200
sg13
F5000
sg14
F1250
sg15
F1500
sbag2
(g3
g4
NtRp3895
(dp3896
g7
F4200
sg8
F4000
sg9
(dp3897
g11
I1000
ssg12
F5400
sg13
F5200
sg14
F1250
sg15
F1500
sbag2
(g3
g4
NtRp3898
(dp3899
g7
F4400
sg8
F4200
sg9
(dp3900
g11
I1000
ssg12
F3400
sg13
F3200
sg14
F1250
sg15
F1500
sbag2
(g3
g4
NtRp3901
(dp3902
g7
F4400
sg8
F4200
sg9
(dp3903
g11
I1000
ssg12
F3600
sg13
F3400
sg14
F1250
sg15
F1500
sbag2
(g3
g4
NtRp3904
(dp3905
g7
F4400
sg8
F4200
sg9
(dp3906
g11
I1000
ssg12
F3800
sg13
F3600
sg14
F1250
sg15
F1500
sbag2
(g3
g4
NtRp3907
(dp3908
g7
F4400
sg8
F4200
sg9
(dp3909
g11
I1000
ssg12
F4000
sg13
F3800
sg14
F1250
sg15
F1500
sbag2
(g3
g4
NtRp3910
(dp3911
g7
F4400
sg8
F4200
sg9
(dp3912
g11
I1000
ssg12
F4200
sg13
F4000
sg14
F1250
sg15
F1500
sbag2
(g3
g4
NtRp3913
(dp3914
g7
F4400
sg8
F4200
sg9
(dp3915
g11
I1000
ssg12
F4400
sg13
F4200
sg14
F1250
sg15
F1500
sbag2
(g3
g4
NtRp3916
(dp3917
g7
F4400
sg8
F4200
sg9
(dp3918
g11
I1000
ssg12
F4600
sg13
F4400
sg14
F1250
sg15
F1500
sbag2
(g3
g4
NtRp3919
(dp3920
g7
F4400
sg8
F4200
sg9
(dp3921
g11
I1000
ssg12
F4800
sg13
F4600
sg14
F1250
sg15
F1500
sbag2
(g3
g4
NtRp3922
(dp3923
g7
F4400
sg8
F4200
sg9
(dp3924
g11
I1000
ssg12
F5000
sg13
F4800
sg14
F1250
sg15
F1500
sbag2
(g3
g4
NtRp3925
(dp3926
g7
F4400
sg8
F4200
sg9
(dp3927
g11
I1000
ssg12
F5200
sg13
F5000
sg14
F1250
sg15
F1500
sbag2
(g3
g4
NtRp3928
(dp3929
g7
F4400
sg8
F4200
sg9
(dp3930
g11
I1000
ssg12
F5400
sg13
F5200
sg14
F1250
sg15
F1500
sbag2
(g3
g4
NtRp3931
(dp3932
g7
F4400
sg8
F4200
sg9
(dp3933
g11
I1000
ssg12
F5600
sg13
F5400
sg14
F1250
sg15
F1500
sbag2
(g3
g4
NtRp3934
(dp3935
g7
F4400
sg8
F4200
sg9
(dp3936
g11
I1000
ssg12
F5800
sg13
F5600
sg14
F1250
sg15
F1500
sbag2
(g3
g4
NtRp3937
(dp3938
g7
F4600
sg8
F4400
sg9
(dp3939
g11
I1000
ssg12
F3600
sg13
F3400
sg14
F1250
sg15
F1500
sbag2
(g3
g4
NtRp3940
(dp3941
g7
F4600
sg8
F4400
sg9
(dp3942
g11
I1000
ssg12
F3800
sg13
F3600
sg14
F1250
sg15
F1500
sbag2
(g3
g4
NtRp3943
(dp3944
g7
F4600
sg8
F4400
sg9
(dp3945
g11
I1000
ssg12
F4000
sg13
F3800
sg14
F1250
sg15
F1500
sbag2
(g3
g4
NtRp3946
(dp3947
g7
F4600
sg8
F4400
sg9
(dp3948
g11
I1000
ssg12
F4200
sg13
F4000
sg14
F1250
sg15
F1500
sbag2
(g3
g4
NtRp3949
(dp3950
g7
F4600
sg8
F4400
sg9
(dp3951
g11
I1000
ssg12
F4400
sg13
F4200
sg14
F1250
sg15
F1500
sbag2
(g3
g4
NtRp3952
(dp3953
g7
F4600
sg8
F4400
sg9
(dp3954
g11
I1000
ssg12
F4600
sg13
F4400
sg14
F1250
sg15
F1500
sbag2
(g3
g4
NtRp3955
(dp3956
g7
F4600
sg8
F4400
sg9
(dp3957
g11
I1000
ssg12
F4800
sg13
F4600
sg14
F1250
sg15
F1500
sbag2
(g3
g4
NtRp3958
(dp3959
g7
F4600
sg8
F4400
sg9
(dp3960
g11
I1000
ssg12
F5000
sg13
F4800
sg14
F1250
sg15
F1500
sbag2
(g3
g4
NtRp3961
(dp3962
g7
F4600
sg8
F4400
sg9
(dp3963
g11
I1000
ssg12
F5200
sg13
F5000
sg14
F1250
sg15
F1500
sbag2
(g3
g4
NtRp3964
(dp3965
g7
F4600
sg8
F4400
sg9
(dp3966
g11
I1000
ssg12
F5400
sg13
F5200
sg14
F1250
sg15
F1500
sbag2
(g3
g4
NtRp3967
(dp3968
g7
F4600
sg8
F4400
sg9
(dp3969
g11
I1000
ssg12
F5600
sg13
F5400
sg14
F1250
sg15
F1500
sbag2
(g3
g4
NtRp3970
(dp3971
g7
F4600
sg8
F4400
sg9
(dp3972
g11
I1000
ssg12
F5800
sg13
F5600
sg14
F1250
sg15
F1500
sbag2
(g3
g4
NtRp3973
(dp3974
g7
F4600
sg8
F4400
sg9
(dp3975
g11
I1000
ssg12
F6000
sg13
F5800
sg14
F1250
sg15
F1500
sbag2
(g3
g4
NtRp3976
(dp3977
g7
F4800
sg8
F4600
sg9
(dp3978
g11
I1000
ssg12
F3800
sg13
F3600
sg14
F1250
sg15
F1500
sbag2
(g3
g4
NtRp3979
(dp3980
g7
F4800
sg8
F4600
sg9
(dp3981
g11
I1000
ssg12
F4000
sg13
F3800
sg14
F1250
sg15
F1500
sbag2
(g3
g4
NtRp3982
(dp3983
g7
F4800
sg8
F4600
sg9
(dp3984
g11
I1000
ssg12
F4200
sg13
F4000
sg14
F1250
sg15
F1500
sbag2
(g3
g4
NtRp3985
(dp3986
g7
F4800
sg8
F4600
sg9
(dp3987
g11
I1000
ssg12
F4400
sg13
F4200
sg14
F1250
sg15
F1500
sbag2
(g3
g4
NtRp3988
(dp3989
g7
F4800
sg8
F4600
sg9
(dp3990
g11
I1000
ssg12
F4600
sg13
F4400
sg14
F1250
sg15
F1500
sbag2
(g3
g4
NtRp3991
(dp3992
g7
F4800
sg8
F4600
sg9
(dp3993
g11
I1000
ssg12
F4800
sg13
F4600
sg14
F1250
sg15
F1500
sbag2
(g3
g4
NtRp3994
(dp3995
g7
F4800
sg8
F4600
sg9
(dp3996
g11
I1000
ssg12
F5000
sg13
F4800
sg14
F1250
sg15
F1500
sbag2
(g3
g4
NtRp3997
(dp3998
g7
F4800
sg8
F4600
sg9
(dp3999
g11
I1000
ssg12
F5200
sg13
F5000
sg14
F1250
sg15
F1500
sbag2
(g3
g4
NtRp4000
(dp4001
g7
F4800
sg8
F4600
sg9
(dp4002
g11
I1000
ssg12
F5400
sg13
F5200
sg14
F1250
sg15
F1500
sbag2
(g3
g4
NtRp4003
(dp4004
g7
F4800
sg8
F4600
sg9
(dp4005
g11
I1000
ssg12
F5600
sg13
F5400
sg14
F1250
sg15
F1500
sbag2
(g3
g4
NtRp4006
(dp4007
g7
F4800
sg8
F4600
sg9
(dp4008
g11
I1000
ssg12
F5800
sg13
F5600
sg14
F1250
sg15
F1500
sbag2
(g3
g4
NtRp4009
(dp4010
g7
F4800
sg8
F4600
sg9
(dp4011
g11
I1000
ssg12
F6000
sg13
F5800
sg14
F1250
sg15
F1500
sbag2
(g3
g4
NtRp4012
(dp4013
g7
F5000
sg8
F4800
sg9
(dp4014
g11
I1000
ssg12
F4000
sg13
F3800
sg14
F1250
sg15
F1500
sbag2
(g3
g4
NtRp4015
(dp4016
g7
F5000
sg8
F4800
sg9
(dp4017
g11
I1000
ssg12
F4200
sg13
F4000
sg14
F1250
sg15
F1500
sbag2
(g3
g4
NtRp4018
(dp4019
g7
F5000
sg8
F4800
sg9
(dp4020
g11
I1000
ssg12
F4400
sg13
F4200
sg14
F1250
sg15
F1500
sbag2
(g3
g4
NtRp4021
(dp4022
g7
F5000
sg8
F4800
sg9
(dp4023
g11
I1000
ssg12
F4600
sg13
F4400
sg14
F1250
sg15
F1500
sbag2
(g3
g4
NtRp4024
(dp4025
g7
F5000
sg8
F4800
sg9
(dp4026
g11
I1000
ssg12
F4800
sg13
F4600
sg14
F1250
sg15
F1500
sbag2
(g3
g4
NtRp4027
(dp4028
g7
F5000
sg8
F4800
sg9
(dp4029
g11
I1000
ssg12
F5000
sg13
F4800
sg14
F1250
sg15
F1500
sbag2
(g3
g4
NtRp4030
(dp4031
g7
F5000
sg8
F4800
sg9
(dp4032
g11
I1000
ssg12
F5200
sg13
F5000
sg14
F1250
sg15
F1500
sbag2
(g3
g4
NtRp4033
(dp4034
g7
F5000
sg8
F4800
sg9
(dp4035
g11
I1000
ssg12
F5400
sg13
F5200
sg14
F1250
sg15
F1500
sbag2
(g3
g4
NtRp4036
(dp4037
g7
F5000
sg8
F4800
sg9
(dp4038
g11
I1000
ssg12
F5600
sg13
F5400
sg14
F1250
sg15
F1500
sbag2
(g3
g4
NtRp4039
(dp4040
g7
F5000
sg8
F4800
sg9
(dp4041
g11
I1000
ssg12
F5800
sg13
F5600
sg14
F1250
sg15
F1500
sbag2
(g3
g4
NtRp4042
(dp4043
g7
F5000
sg8
F4800
sg9
(dp4044
g11
I1000
ssg12
F6000
sg13
F5800
sg14
F1250
sg15
F1500
sbag2
(g3
g4
NtRp4045
(dp4046
g7
F5000
sg8
F4800
sg9
(dp4047
g11
I1000
ssg12
F6200
sg13
F6000
sg14
F1250
sg15
F1500
sbag2
(g3
g4
NtRp4048
(dp4049
g7
F5200
sg8
F5000
sg9
(dp4050
g11
I1000
ssg12
F4200
sg13
F4000
sg14
F1250
sg15
F1500
sbag2
(g3
g4
NtRp4051
(dp4052
g7
F5200
sg8
F5000
sg9
(dp4053
g11
I1000
ssg12
F4400
sg13
F4200
sg14
F1250
sg15
F1500
sbag2
(g3
g4
NtRp4054
(dp4055
g7
F5200
sg8
F5000
sg9
(dp4056
g11
I1000
ssg12
F4600
sg13
F4400
sg14
F1250
sg15
F1500
sbag2
(g3
g4
NtRp4057
(dp4058
g7
F5200
sg8
F5000
sg9
(dp4059
g11
I1000
ssg12
F4800
sg13
F4600
sg14
F1250
sg15
F1500
sbag2
(g3
g4
NtRp4060
(dp4061
g7
F5200
sg8
F5000
sg9
(dp4062
g11
I1000
ssg12
F5000
sg13
F4800
sg14
F1250
sg15
F1500
sbag2
(g3
g4
NtRp4063
(dp4064
g7
F5200
sg8
F5000
sg9
(dp4065
g11
I1000
ssg12
F5200
sg13
F5000
sg14
F1250
sg15
F1500
sbag2
(g3
g4
NtRp4066
(dp4067
g7
F5200
sg8
F5000
sg9
(dp4068
g11
I1000
ssg12
F5400
sg13
F5200
sg14
F1250
sg15
F1500
sbag2
(g3
g4
NtRp4069
(dp4070
g7
F5200
sg8
F5000
sg9
(dp4071
g11
I1000
ssg12
F5600
sg13
F5400
sg14
F1250
sg15
F1500
sbag2
(g3
g4
NtRp4072
(dp4073
g7
F5200
sg8
F5000
sg9
(dp4074
g11
I1000
ssg12
F5800
sg13
F5600
sg14
F1250
sg15
F1500
sbag2
(g3
g4
NtRp4075
(dp4076
g7
F5200
sg8
F5000
sg9
(dp4077
g11
I1000
ssg12
F6000
sg13
F5800
sg14
F1250
sg15
F1500
sbag2
(g3
g4
NtRp4078
(dp4079
g7
F5200
sg8
F5000
sg9
(dp4080
g11
I1000
ssg12
F6200
sg13
F6000
sg14
F1250
sg15
F1500
sbag2
(g3
g4
NtRp4081
(dp4082
g7
F5400
sg8
F5200
sg9
(dp4083
g11
I1000
ssg12
F4400
sg13
F4200
sg14
F1250
sg15
F1500
sbag2
(g3
g4
NtRp4084
(dp4085
g7
F5400
sg8
F5200
sg9
(dp4086
g11
I1000
ssg12
F4600
sg13
F4400
sg14
F1250
sg15
F1500
sbag2
(g3
g4
NtRp4087
(dp4088
g7
F5400
sg8
F5200
sg9
(dp4089
g11
I1000
ssg12
F4800
sg13
F4600
sg14
F1250
sg15
F1500
sbag2
(g3
g4
NtRp4090
(dp4091
g7
F5400
sg8
F5200
sg9
(dp4092
g11
I1000
ssg12
F5000
sg13
F4800
sg14
F1250
sg15
F1500
sbag2
(g3
g4
NtRp4093
(dp4094
g7
F5400
sg8
F5200
sg9
(dp4095
g11
I1000
ssg12
F5200
sg13
F5000
sg14
F1250
sg15
F1500
sbag2
(g3
g4
NtRp4096
(dp4097
g7
F5400
sg8
F5200
sg9
(dp4098
g11
I1000
ssg12
F5400
sg13
F5200
sg14
F1250
sg15
F1500
sbag2
(g3
g4
NtRp4099
(dp4100
g7
F5400
sg8
F5200
sg9
(dp4101
g11
I1000
ssg12
F5600
sg13
F5400
sg14
F1250
sg15
F1500
sbag2
(g3
g4
NtRp4102
(dp4103
g7
F5400
sg8
F5200
sg9
(dp4104
g11
I1000
ssg12
F5800
sg13
F5600
sg14
F1250
sg15
F1500
sbag2
(g3
g4
NtRp4105
(dp4106
g7
F5400
sg8
F5200
sg9
(dp4107
g11
I1000
ssg12
F6000
sg13
F5800
sg14
F1250
sg15
F1500
sbag2
(g3
g4
NtRp4108
(dp4109
g7
F5400
sg8
F5200
sg9
(dp4110
g11
I1000
ssg12
F6200
sg13
F6000
sg14
F1250
sg15
F1500
sbag2
(g3
g4
NtRp4111
(dp4112
g7
F5400
sg8
F5200
sg9
(dp4113
g11
I1000
ssg12
F6400
sg13
F6200
sg14
F1250
sg15
F1500
sbag2
(g3
g4
NtRp4114
(dp4115
g7
F5600
sg8
F5400
sg9
(dp4116
g11
I1000
ssg12
F4600
sg13
F4400
sg14
F1250
sg15
F1500
sbag2
(g3
g4
NtRp4117
(dp4118
g7
F5600
sg8
F5400
sg9
(dp4119
g11
I1000
ssg12
F4800
sg13
F4600
sg14
F1250
sg15
F1500
sbag2
(g3
g4
NtRp4120
(dp4121
g7
F5600
sg8
F5400
sg9
(dp4122
g11
I1000
ssg12
F5000
sg13
F4800
sg14
F1250
sg15
F1500
sbag2
(g3
g4
NtRp4123
(dp4124
g7
F5600
sg8
F5400
sg9
(dp4125
g11
I1000
ssg12
F5200
sg13
F5000
sg14
F1250
sg15
F1500
sbag2
(g3
g4
NtRp4126
(dp4127
g7
F5600
sg8
F5400
sg9
(dp4128
g11
I1000
ssg12
F5400
sg13
F5200
sg14
F1250
sg15
F1500
sbag2
(g3
g4
NtRp4129
(dp4130
g7
F5600
sg8
F5400
sg9
(dp4131
g11
I1000
ssg12
F5600
sg13
F5400
sg14
F1250
sg15
F1500
sbag2
(g3
g4
NtRp4132
(dp4133
g7
F5600
sg8
F5400
sg9
(dp4134
g11
I1000
ssg12
F5800
sg13
F5600
sg14
F1250
sg15
F1500
sbag2
(g3
g4
NtRp4135
(dp4136
g7
F5600
sg8
F5400
sg9
(dp4137
g11
I1000
ssg12
F6000
sg13
F5800
sg14
F1250
sg15
F1500
sbag2
(g3
g4
NtRp4138
(dp4139
g7
F5600
sg8
F5400
sg9
(dp4140
g11
I1000
ssg12
F6200
sg13
F6000
sg14
F1250
sg15
F1500
sbag2
(g3
g4
NtRp4141
(dp4142
g7
F5600
sg8
F5400
sg9
(dp4143
g11
I1000
ssg12
F6400
sg13
F6200
sg14
F1250
sg15
F1500
sbag2
(g3
g4
NtRp4144
(dp4145
g7
F5800
sg8
F5600
sg9
(dp4146
g11
I1000
ssg12
F4800
sg13
F4600
sg14
F1250
sg15
F1500
sbag2
(g3
g4
NtRp4147
(dp4148
g7
F5800
sg8
F5600
sg9
(dp4149
g11
I1000
ssg12
F5000
sg13
F4800
sg14
F1250
sg15
F1500
sbag2
(g3
g4
NtRp4150
(dp4151
g7
F5800
sg8
F5600
sg9
(dp4152
g11
I1000
ssg12
F5200
sg13
F5000
sg14
F1250
sg15
F1500
sbag2
(g3
g4
NtRp4153
(dp4154
g7
F5800
sg8
F5600
sg9
(dp4155
g11
I1000
ssg12
F5400
sg13
F5200
sg14
F1250
sg15
F1500
sbag2
(g3
g4
NtRp4156
(dp4157
g7
F5800
sg8
F5600
sg9
(dp4158
g11
I1000
ssg12
F5600
sg13
F5400
sg14
F1250
sg15
F1500
sbag2
(g3
g4
NtRp4159
(dp4160
g7
F5800
sg8
F5600
sg9
(dp4161
g11
I1000
ssg12
F5800
sg13
F5600
sg14
F1250
sg15
F1500
sbag2
(g3
g4
NtRp4162
(dp4163
g7
F5800
sg8
F5600
sg9
(dp4164
g11
I1000
ssg12
F6000
sg13
F5800
sg14
F1250
sg15
F1500
sbag2
(g3
g4
NtRp4165
(dp4166
g7
F5800
sg8
F5600
sg9
(dp4167
g11
I1000
ssg12
F6200
sg13
F6000
sg14
F1250
sg15
F1500
sbag2
(g3
g4
NtRp4168
(dp4169
g7
F6000
sg8
F5800
sg9
(dp4170
g11
I1000
ssg12
F5000
sg13
F4800
sg14
F1250
sg15
F1500
sbag2
(g3
g4
NtRp4171
(dp4172
g7
F6000
sg8
F5800
sg9
(dp4173
g11
I1000
ssg12
F5200
sg13
F5000
sg14
F1250
sg15
F1500
sbag2
(g3
g4
NtRp4174
(dp4175
g7
F6000
sg8
F5800
sg9
(dp4176
g11
I1000
ssg12
F5400
sg13
F5200
sg14
F1250
sg15
F1500
sbag2
(g3
g4
NtRp4177
(dp4178
g7
F6000
sg8
F5800
sg9
(dp4179
g11
I1000
ssg12
F5600
sg13
F5400
sg14
F1250
sg15
F1500
sbag2
(g3
g4
NtRp4180
(dp4181
g7
F6000
sg8
F5800
sg9
(dp4182
g11
I1000
ssg12
F5800
sg13
F5600
sg14
F1250
sg15
F1500
sbag2
(g3
g4
NtRp4183
(dp4184
g7
F6000
sg8
F5800
sg9
(dp4185
g11
I1000
ssg12
F6000
sg13
F5800
sg14
F1250
sg15
F1500
sbag2
(g3
g4
NtRp4186
(dp4187
g7
F6000
sg8
F5800
sg9
(dp4188
g11
I1000
ssg12
F6200
sg13
F6000
sg14
F1250
sg15
F1500
sbag2
(g3
g4
NtRp4189
(dp4190
g7
F6200
sg8
F6000
sg9
(dp4191
g11
I1000
ssg12
F5400
sg13
F5200
sg14
F1250
sg15
F1500
sbag2
(g3
g4
NtRp4192
(dp4193
g7
F6200
sg8
F6000
sg9
(dp4194
g11
I1000
ssg12
F5600
sg13
F5400
sg14
F1250
sg15
F1500
sbag2
(g3
g4
NtRp4195
(dp4196
g7
F6200
sg8
F6000
sg9
(dp4197
g11
I1000
ssg12
F5800
sg13
F5600
sg14
F1250
sg15
F1500
sbag2
(g3
g4
NtRp4198
(dp4199
g7
F3200
sg8
F3000
sg9
(dp4200
g11
I1000
ssg12
F3800
sg13
F3600
sg14
F1500
sg15
F1750
sbag2
(g3
g4
NtRp4201
(dp4202
g7
F3400
sg8
F3200
sg9
(dp4203
g11
I1000
ssg12
F3400
sg13
F3200
sg14
F1500
sg15
F1750
sbag2
(g3
g4
NtRp4204
(dp4205
g7
F3400
sg8
F3200
sg9
(dp4206
g11
I1000
ssg12
F3600
sg13
F3400
sg14
F1500
sg15
F1750
sbag2
(g3
g4
NtRp4207
(dp4208
g7
F3400
sg8
F3200
sg9
(dp4209
g11
I1000
ssg12
F3800
sg13
F3600
sg14
F1500
sg15
F1750
sbag2
(g3
g4
NtRp4210
(dp4211
g7
F3400
sg8
F3200
sg9
(dp4212
g11
I1000
ssg12
F4000
sg13
F3800
sg14
F1500
sg15
F1750
sbag2
(g3
g4
NtRp4213
(dp4214
g7
F3400
sg8
F3200
sg9
(dp4215
g11
I1000
ssg12
F4200
sg13
F4000
sg14
F1500
sg15
F1750
sbag2
(g3
g4
NtRp4216
(dp4217
g7
F3400
sg8
F3200
sg9
(dp4218
g11
I1000
ssg12
F4400
sg13
F4200
sg14
F1500
sg15
F1750
sbag2
(g3
g4
NtRp4219
(dp4220
g7
F3600
sg8
F3400
sg9
(dp4221
g11
I1000
ssg12
F3400
sg13
F3200
sg14
F1500
sg15
F1750
sbag2
(g3
g4
NtRp4222
(dp4223
g7
F3600
sg8
F3400
sg9
(dp4224
g11
I1000
ssg12
F3600
sg13
F3400
sg14
F1500
sg15
F1750
sbag2
(g3
g4
NtRp4225
(dp4226
g7
F3600
sg8
F3400
sg9
(dp4227
g11
I1000
ssg12
F3800
sg13
F3600
sg14
F1500
sg15
F1750
sbag2
(g3
g4
NtRp4228
(dp4229
g7
F3600
sg8
F3400
sg9
(dp4230
g11
I1000
ssg12
F4000
sg13
F3800
sg14
F1500
sg15
F1750
sbag2
(g3
g4
NtRp4231
(dp4232
g7
F3600
sg8
F3400
sg9
(dp4233
g11
I1000
ssg12
F4200
sg13
F4000
sg14
F1500
sg15
F1750
sbag2
(g3
g4
NtRp4234
(dp4235
g7
F3600
sg8
F3400
sg9
(dp4236
g11
I1000
ssg12
F4400
sg13
F4200
sg14
F1500
sg15
F1750
sbag2
(g3
g4
NtRp4237
(dp4238
g7
F3600
sg8
F3400
sg9
(dp4239
g11
I1000
ssg12
F4600
sg13
F4400
sg14
F1500
sg15
F1750
sbag2
(g3
g4
NtRp4240
(dp4241
g7
F3800
sg8
F3600
sg9
(dp4242
g11
I1000
ssg12
F3400
sg13
F3200
sg14
F1500
sg15
F1750
sbag2
(g3
g4
NtRp4243
(dp4244
g7
F3800
sg8
F3600
sg9
(dp4245
g11
I1000
ssg12
F3600
sg13
F3400
sg14
F1500
sg15
F1750
sbag2
(g3
g4
NtRp4246
(dp4247
g7
F3800
sg8
F3600
sg9
(dp4248
g11
I1000
ssg12
F3800
sg13
F3600
sg14
F1500
sg15
F1750
sbag2
(g3
g4
NtRp4249
(dp4250
g7
F3800
sg8
F3600
sg9
(dp4251
g11
I1000
ssg12
F4000
sg13
F3800
sg14
F1500
sg15
F1750
sbag2
(g3
g4
NtRp4252
(dp4253
g7
F3800
sg8
F3600
sg9
(dp4254
g11
I1000
ssg12
F4200
sg13
F4000
sg14
F1500
sg15
F1750
sbag2
(g3
g4
NtRp4255
(dp4256
g7
F3800
sg8
F3600
sg9
(dp4257
g11
I1000
ssg12
F4400
sg13
F4200
sg14
F1500
sg15
F1750
sbag2
(g3
g4
NtRp4258
(dp4259
g7
F3800
sg8
F3600
sg9
(dp4260
g11
I1000
ssg12
F4600
sg13
F4400
sg14
F1500
sg15
F1750
sbag2
(g3
g4
NtRp4261
(dp4262
g7
F3800
sg8
F3600
sg9
(dp4263
g11
I1000
ssg12
F4800
sg13
F4600
sg14
F1500
sg15
F1750
sbag2
(g3
g4
NtRp4264
(dp4265
g7
F3800
sg8
F3600
sg9
(dp4266
g11
I1000
ssg12
F5000
sg13
F4800
sg14
F1500
sg15
F1750
sbag2
(g3
g4
NtRp4267
(dp4268
g7
F4000
sg8
F3800
sg9
(dp4269
g11
I1000
ssg12
F3400
sg13
F3200
sg14
F1500
sg15
F1750
sbag2
(g3
g4
NtRp4270
(dp4271
g7
F4000
sg8
F3800
sg9
(dp4272
g11
I1000
ssg12
F3600
sg13
F3400
sg14
F1500
sg15
F1750
sbag2
(g3
g4
NtRp4273
(dp4274
g7
F4000
sg8
F3800
sg9
(dp4275
g11
I1000
ssg12
F3800
sg13
F3600
sg14
F1500
sg15
F1750
sbag2
(g3
g4
NtRp4276
(dp4277
g7
F4000
sg8
F3800
sg9
(dp4278
g11
I1000
ssg12
F4000
sg13
F3800
sg14
F1500
sg15
F1750
sbag2
(g3
g4
NtRp4279
(dp4280
g7
F4000
sg8
F3800
sg9
(dp4281
g11
I1000
ssg12
F4200
sg13
F4000
sg14
F1500
sg15
F1750
sbag2
(g3
g4
NtRp4282
(dp4283
g7
F4000
sg8
F3800
sg9
(dp4284
g11
I1000
ssg12
F4400
sg13
F4200
sg14
F1500
sg15
F1750
sbag2
(g3
g4
NtRp4285
(dp4286
g7
F4000
sg8
F3800
sg9
(dp4287
g11
I1000
ssg12
F4600
sg13
F4400
sg14
F1500
sg15
F1750
sbag2
(g3
g4
NtRp4288
(dp4289
g7
F4000
sg8
F3800
sg9
(dp4290
g11
I1000
ssg12
F4800
sg13
F4600
sg14
F1500
sg15
F1750
sbag2
(g3
g4
NtRp4291
(dp4292
g7
F4000
sg8
F3800
sg9
(dp4293
g11
I1000
ssg12
F5000
sg13
F4800
sg14
F1500
sg15
F1750
sbag2
(g3
g4
NtRp4294
(dp4295
g7
F4000
sg8
F3800
sg9
(dp4296
g11
I1000
ssg12
F5200
sg13
F5000
sg14
F1500
sg15
F1750
sbag2
(g3
g4
NtRp4297
(dp4298
g7
F4200
sg8
F4000
sg9
(dp4299
g11
I1000
ssg12
F3400
sg13
F3200
sg14
F1500
sg15
F1750
sbag2
(g3
g4
NtRp4300
(dp4301
g7
F4200
sg8
F4000
sg9
(dp4302
g11
I1000
ssg12
F3600
sg13
F3400
sg14
F1500
sg15
F1750
sbag2
(g3
g4
NtRp4303
(dp4304
g7
F4200
sg8
F4000
sg9
(dp4305
g11
I1000
ssg12
F3800
sg13
F3600
sg14
F1500
sg15
F1750
sbag2
(g3
g4
NtRp4306
(dp4307
g7
F4200
sg8
F4000
sg9
(dp4308
g11
I1000
ssg12
F4000
sg13
F3800
sg14
F1500
sg15
F1750
sbag2
(g3
g4
NtRp4309
(dp4310
g7
F4200
sg8
F4000
sg9
(dp4311
g11
I1000
ssg12
F4200
sg13
F4000
sg14
F1500
sg15
F1750
sbag2
(g3
g4
NtRp4312
(dp4313
g7
F4200
sg8
F4000
sg9
(dp4314
g11
I1000
ssg12
F4400
sg13
F4200
sg14
F1500
sg15
F1750
sbag2
(g3
g4
NtRp4315
(dp4316
g7
F4200
sg8
F4000
sg9
(dp4317
g11
I1000
ssg12
F4600
sg13
F4400
sg14
F1500
sg15
F1750
sbag2
(g3
g4
NtRp4318
(dp4319
g7
F4200
sg8
F4000
sg9
(dp4320
g11
I1000
ssg12
F4800
sg13
F4600
sg14
F1500
sg15
F1750
sbag2
(g3
g4
NtRp4321
(dp4322
g7
F4200
sg8
F4000
sg9
(dp4323
g11
I1000
ssg12
F5000
sg13
F4800
sg14
F1500
sg15
F1750
sbag2
(g3
g4
NtRp4324
(dp4325
g7
F4200
sg8
F4000
sg9
(dp4326
g11
I1000
ssg12
F5200
sg13
F5000
sg14
F1500
sg15
F1750
sbag2
(g3
g4
NtRp4327
(dp4328
g7
F4400
sg8
F4200
sg9
(dp4329
g11
I1000
ssg12
F3600
sg13
F3400
sg14
F1500
sg15
F1750
sbag2
(g3
g4
NtRp4330
(dp4331
g7
F4400
sg8
F4200
sg9
(dp4332
g11
I1000
ssg12
F3800
sg13
F3600
sg14
F1500
sg15
F1750
sbag2
(g3
g4
NtRp4333
(dp4334
g7
F4400
sg8
F4200
sg9
(dp4335
g11
I1000
ssg12
F4000
sg13
F3800
sg14
F1500
sg15
F1750
sbag2
(g3
g4
NtRp4336
(dp4337
g7
F4400
sg8
F4200
sg9
(dp4338
g11
I1000
ssg12
F4200
sg13
F4000
sg14
F1500
sg15
F1750
sbag2
(g3
g4
NtRp4339
(dp4340
g7
F4400
sg8
F4200
sg9
(dp4341
g11
I1000
ssg12
F4400
sg13
F4200
sg14
F1500
sg15
F1750
sbag2
(g3
g4
NtRp4342
(dp4343
g7
F4400
sg8
F4200
sg9
(dp4344
g11
I1000
ssg12
F4600
sg13
F4400
sg14
F1500
sg15
F1750
sbag2
(g3
g4
NtRp4345
(dp4346
g7
F4400
sg8
F4200
sg9
(dp4347
g11
I1000
ssg12
F4800
sg13
F4600
sg14
F1500
sg15
F1750
sbag2
(g3
g4
NtRp4348
(dp4349
g7
F4400
sg8
F4200
sg9
(dp4350
g11
I1000
ssg12
F5000
sg13
F4800
sg14
F1500
sg15
F1750
sbag2
(g3
g4
NtRp4351
(dp4352
g7
F4400
sg8
F4200
sg9
(dp4353
g11
I1000
ssg12
F5200
sg13
F5000
sg14
F1500
sg15
F1750
sbag2
(g3
g4
NtRp4354
(dp4355
g7
F4400
sg8
F4200
sg9
(dp4356
g11
I1000
ssg12
F5400
sg13
F5200
sg14
F1500
sg15
F1750
sbag2
(g3
g4
NtRp4357
(dp4358
g7
F4400
sg8
F4200
sg9
(dp4359
g11
I1000
ssg12
F5600
sg13
F5400
sg14
F1500
sg15
F1750
sbag2
(g3
g4
NtRp4360
(dp4361
g7
F4600
sg8
F4400
sg9
(dp4362
g11
I1000
ssg12
F3800
sg13
F3600
sg14
F1500
sg15
F1750
sbag2
(g3
g4
NtRp4363
(dp4364
g7
F4600
sg8
F4400
sg9
(dp4365
g11
I1000
ssg12
F4000
sg13
F3800
sg14
F1500
sg15
F1750
sbag2
(g3
g4
NtRp4366
(dp4367
g7
F4600
sg8
F4400
sg9
(dp4368
g11
I1000
ssg12
F4200
sg13
F4000
sg14
F1500
sg15
F1750
sbag2
(g3
g4
NtRp4369
(dp4370
g7
F4600
sg8
F4400
sg9
(dp4371
g11
I1000
ssg12
F4400
sg13
F4200
sg14
F1500
sg15
F1750
sbag2
(g3
g4
NtRp4372
(dp4373
g7
F4600
sg8
F4400
sg9
(dp4374
g11
I1000
ssg12
F4600
sg13
F4400
sg14
F1500
sg15
F1750
sbag2
(g3
g4
NtRp4375
(dp4376
g7
F4600
sg8
F4400
sg9
(dp4377
g11
I1000
ssg12
F4800
sg13
F4600
sg14
F1500
sg15
F1750
sbag2
(g3
g4
NtRp4378
(dp4379
g7
F4600
sg8
F4400
sg9
(dp4380
g11
I1000
ssg12
F5000
sg13
F4800
sg14
F1500
sg15
F1750
sbag2
(g3
g4
NtRp4381
(dp4382
g7
F4600
sg8
F4400
sg9
(dp4383
g11
I1000
ssg12
F5200
sg13
F5000
sg14
F1500
sg15
F1750
sbag2
(g3
g4
NtRp4384
(dp4385
g7
F4600
sg8
F4400
sg9
(dp4386
g11
I1000
ssg12
F5400
sg13
F5200
sg14
F1500
sg15
F1750
sbag2
(g3
g4
NtRp4387
(dp4388
g7
F4600
sg8
F4400
sg9
(dp4389
g11
I1000
ssg12
F5600
sg13
F5400
sg14
F1500
sg15
F1750
sbag2
(g3
g4
NtRp4390
(dp4391
g7
F4600
sg8
F4400
sg9
(dp4392
g11
I1000
ssg12
F5800
sg13
F5600
sg14
F1500
sg15
F1750
sbag2
(g3
g4
NtRp4393
(dp4394
g7
F4800
sg8
F4600
sg9
(dp4395
g11
I1000
ssg12
F4000
sg13
F3800
sg14
F1500
sg15
F1750
sbag2
(g3
g4
NtRp4396
(dp4397
g7
F4800
sg8
F4600
sg9
(dp4398
g11
I1000
ssg12
F4200
sg13
F4000
sg14
F1500
sg15
F1750
sbag2
(g3
g4
NtRp4399
(dp4400
g7
F4800
sg8
F4600
sg9
(dp4401
g11
I1000
ssg12
F4400
sg13
F4200
sg14
F1500
sg15
F1750
sbag2
(g3
g4
NtRp4402
(dp4403
g7
F4800
sg8
F4600
sg9
(dp4404
g11
I1000
ssg12
F4600
sg13
F4400
sg14
F1500
sg15
F1750
sbag2
(g3
g4
NtRp4405
(dp4406
g7
F4800
sg8
F4600
sg9
(dp4407
g11
I1000
ssg12
F4800
sg13
F4600
sg14
F1500
sg15
F1750
sbag2
(g3
g4
NtRp4408
(dp4409
g7
F4800
sg8
F4600
sg9
(dp4410
g11
I1000
ssg12
F5000
sg13
F4800
sg14
F1500
sg15
F1750
sbag2
(g3
g4
NtRp4411
(dp4412
g7
F4800
sg8
F4600
sg9
(dp4413
g11
I1000
ssg12
F5200
sg13
F5000
sg14
F1500
sg15
F1750
sbag2
(g3
g4
NtRp4414
(dp4415
g7
F4800
sg8
F4600
sg9
(dp4416
g11
I1000
ssg12
F5400
sg13
F5200
sg14
F1500
sg15
F1750
sbag2
(g3
g4
NtRp4417
(dp4418
g7
F4800
sg8
F4600
sg9
(dp4419
g11
I1000
ssg12
F5600
sg13
F5400
sg14
F1500
sg15
F1750
sbag2
(g3
g4
NtRp4420
(dp4421
g7
F4800
sg8
F4600
sg9
(dp4422
g11
I1000
ssg12
F5800
sg13
F5600
sg14
F1500
sg15
F1750
sbag2
(g3
g4
NtRp4423
(dp4424
g7
F4800
sg8
F4600
sg9
(dp4425
g11
I1000
ssg12
F6000
sg13
F5800
sg14
F1500
sg15
F1750
sbag2
(g3
g4
NtRp4426
(dp4427
g7
F5000
sg8
F4800
sg9
(dp4428
g11
I1000
ssg12
F4200
sg13
F4000
sg14
F1500
sg15
F1750
sbag2
(g3
g4
NtRp4429
(dp4430
g7
F5000
sg8
F4800
sg9
(dp4431
g11
I1000
ssg12
F4400
sg13
F4200
sg14
F1500
sg15
F1750
sbag2
(g3
g4
NtRp4432
(dp4433
g7
F5000
sg8
F4800
sg9
(dp4434
g11
I1000
ssg12
F4600
sg13
F4400
sg14
F1500
sg15
F1750
sbag2
(g3
g4
NtRp4435
(dp4436
g7
F5000
sg8
F4800
sg9
(dp4437
g11
I1000
ssg12
F4800
sg13
F4600
sg14
F1500
sg15
F1750
sbag2
(g3
g4
NtRp4438
(dp4439
g7
F5000
sg8
F4800
sg9
(dp4440
g11
I1000
ssg12
F5000
sg13
F4800
sg14
F1500
sg15
F1750
sbag2
(g3
g4
NtRp4441
(dp4442
g7
F5000
sg8
F4800
sg9
(dp4443
g11
I1000
ssg12
F5200
sg13
F5000
sg14
F1500
sg15
F1750
sbag2
(g3
g4
NtRp4444
(dp4445
g7
F5000
sg8
F4800
sg9
(dp4446
g11
I1000
ssg12
F5400
sg13
F5200
sg14
F1500
sg15
F1750
sbag2
(g3
g4
NtRp4447
(dp4448
g7
F5000
sg8
F4800
sg9
(dp4449
g11
I1000
ssg12
F5600
sg13
F5400
sg14
F1500
sg15
F1750
sbag2
(g3
g4
NtRp4450
(dp4451
g7
F5000
sg8
F4800
sg9
(dp4452
g11
I1000
ssg12
F5800
sg13
F5600
sg14
F1500
sg15
F1750
sbag2
(g3
g4
NtRp4453
(dp4454
g7
F5000
sg8
F4800
sg9
(dp4455
g11
I1000
ssg12
F6000
sg13
F5800
sg14
F1500
sg15
F1750
sbag2
(g3
g4
NtRp4456
(dp4457
g7
F5200
sg8
F5000
sg9
(dp4458
g11
I1000
ssg12
F4400
sg13
F4200
sg14
F1500
sg15
F1750
sbag2
(g3
g4
NtRp4459
(dp4460
g7
F5200
sg8
F5000
sg9
(dp4461
g11
I1000
ssg12
F4600
sg13
F4400
sg14
F1500
sg15
F1750
sbag2
(g3
g4
NtRp4462
(dp4463
g7
F5200
sg8
F5000
sg9
(dp4464
g11
I1000
ssg12
F4800
sg13
F4600
sg14
F1500
sg15
F1750
sbag2
(g3
g4
NtRp4465
(dp4466
g7
F5200
sg8
F5000
sg9
(dp4467
g11
I1000
ssg12
F5000
sg13
F4800
sg14
F1500
sg15
F1750
sbag2
(g3
g4
NtRp4468
(dp4469
g7
F5200
sg8
F5000
sg9
(dp4470
g11
I1000
ssg12
F5200
sg13
F5000
sg14
F1500
sg15
F1750
sbag2
(g3
g4
NtRp4471
(dp4472
g7
F5200
sg8
F5000
sg9
(dp4473
g11
I1000
ssg12
F5400
sg13
F5200
sg14
F1500
sg15
F1750
sbag2
(g3
g4
NtRp4474
(dp4475
g7
F5200
sg8
F5000
sg9
(dp4476
g11
I1000
ssg12
F5600
sg13
F5400
sg14
F1500
sg15
F1750
sbag2
(g3
g4
NtRp4477
(dp4478
g7
F5200
sg8
F5000
sg9
(dp4479
g11
I1000
ssg12
F5800
sg13
F5600
sg14
F1500
sg15
F1750
sbag2
(g3
g4
NtRp4480
(dp4481
g7
F5200
sg8
F5000
sg9
(dp4482
g11
I1000
ssg12
F6000
sg13
F5800
sg14
F1500
sg15
F1750
sbag2
(g3
g4
NtRp4483
(dp4484
g7
F5400
sg8
F5200
sg9
(dp4485
g11
I1000
ssg12
F4600
sg13
F4400
sg14
F1500
sg15
F1750
sbag2
(g3
g4
NtRp4486
(dp4487
g7
F5400
sg8
F5200
sg9
(dp4488
g11
I1000
ssg12
F4800
sg13
F4600
sg14
F1500
sg15
F1750
sbag2
(g3
g4
NtRp4489
(dp4490
g7
F5400
sg8
F5200
sg9
(dp4491
g11
I1000
ssg12
F5000
sg13
F4800
sg14
F1500
sg15
F1750
sbag2
(g3
g4
NtRp4492
(dp4493
g7
F5400
sg8
F5200
sg9
(dp4494
g11
I1000
ssg12
F5200
sg13
F5000
sg14
F1500
sg15
F1750
sbag2
(g3
g4
NtRp4495
(dp4496
g7
F5400
sg8
F5200
sg9
(dp4497
g11
I1000
ssg12
F5400
sg13
F5200
sg14
F1500
sg15
F1750
sbag2
(g3
g4
NtRp4498
(dp4499
g7
F5400
sg8
F5200
sg9
(dp4500
g11
I1000
ssg12
F5600
sg13
F5400
sg14
F1500
sg15
F1750
sbag2
(g3
g4
NtRp4501
(dp4502
g7
F5400
sg8
F5200
sg9
(dp4503
g11
I1000
ssg12
F5800
sg13
F5600
sg14
F1500
sg15
F1750
sbag2
(g3
g4
NtRp4504
(dp4505
g7
F5400
sg8
F5200
sg9
(dp4506
g11
I1000
ssg12
F6000
sg13
F5800
sg14
F1500
sg15
F1750
sbag2
(g3
g4
NtRp4507
(dp4508
g7
F5400
sg8
F5200
sg9
(dp4509
g11
I1000
ssg12
F6200
sg13
F6000
sg14
F1500
sg15
F1750
sbag2
(g3
g4
NtRp4510
(dp4511
g7
F5600
sg8
F5400
sg9
(dp4512
g11
I1000
ssg12
F4800
sg13
F4600
sg14
F1500
sg15
F1750
sbag2
(g3
g4
NtRp4513
(dp4514
g7
F5600
sg8
F5400
sg9
(dp4515
g11
I1000
ssg12
F5000
sg13
F4800
sg14
F1500
sg15
F1750
sbag2
(g3
g4
NtRp4516
(dp4517
g7
F5600
sg8
F5400
sg9
(dp4518
g11
I1000
ssg12
F5200
sg13
F5000
sg14
F1500
sg15
F1750
sbag2
(g3
g4
NtRp4519
(dp4520
g7
F5600
sg8
F5400
sg9
(dp4521
g11
I1000
ssg12
F5400
sg13
F5200
sg14
F1500
sg15
F1750
sbag2
(g3
g4
NtRp4522
(dp4523
g7
F5600
sg8
F5400
sg9
(dp4524
g11
I1000
ssg12
F5600
sg13
F5400
sg14
F1500
sg15
F1750
sbag2
(g3
g4
NtRp4525
(dp4526
g7
F5600
sg8
F5400
sg9
(dp4527
g11
I1000
ssg12
F5800
sg13
F5600
sg14
F1500
sg15
F1750
sbag2
(g3
g4
NtRp4528
(dp4529
g7
F5600
sg8
F5400
sg9
(dp4530
g11
I1000
ssg12
F6000
sg13
F5800
sg14
F1500
sg15
F1750
sbag2
(g3
g4
NtRp4531
(dp4532
g7
F5600
sg8
F5400
sg9
(dp4533
g11
I1000
ssg12
F6200
sg13
F6000
sg14
F1500
sg15
F1750
sbag2
(g3
g4
NtRp4534
(dp4535
g7
F5800
sg8
F5600
sg9
(dp4536
g11
I1000
ssg12
F5000
sg13
F4800
sg14
F1500
sg15
F1750
sbag2
(g3
g4
NtRp4537
(dp4538
g7
F5800
sg8
F5600
sg9
(dp4539
g11
I1000
ssg12
F5200
sg13
F5000
sg14
F1500
sg15
F1750
sbag2
(g3
g4
NtRp4540
(dp4541
g7
F5800
sg8
F5600
sg9
(dp4542
g11
I1000
ssg12
F5400
sg13
F5200
sg14
F1500
sg15
F1750
sbag2
(g3
g4
NtRp4543
(dp4544
g7
F5800
sg8
F5600
sg9
(dp4545
g11
I1000
ssg12
F5600
sg13
F5400
sg14
F1500
sg15
F1750
sbag2
(g3
g4
NtRp4546
(dp4547
g7
F5800
sg8
F5600
sg9
(dp4548
g11
I1000
ssg12
F5800
sg13
F5600
sg14
F1500
sg15
F1750
sbag2
(g3
g4
NtRp4549
(dp4550
g7
F5800
sg8
F5600
sg9
(dp4551
g11
I1000
ssg12
F6000
sg13
F5800
sg14
F1500
sg15
F1750
sbag2
(g3
g4
NtRp4552
(dp4553
g7
F6000
sg8
F5800
sg9
(dp4554
g11
I1000
ssg12
F5200
sg13
F5000
sg14
F1500
sg15
F1750
sbag2
(g3
g4
NtRp4555
(dp4556
g7
F6000
sg8
F5800
sg9
(dp4557
g11
I1000
ssg12
F5400
sg13
F5200
sg14
F1500
sg15
F1750
sbag2
(g3
g4
NtRp4558
(dp4559
g7
F6000
sg8
F5800
sg9
(dp4560
g11
I1000
ssg12
F5600
sg13
F5400
sg14
F1500
sg15
F1750
sbag2
(g3
g4
NtRp4561
(dp4562
g7
F6000
sg8
F5800
sg9
(dp4563
g11
I1000
ssg12
F5800
sg13
F5600
sg14
F1500
sg15
F1750
sbag2
(g3
g4
NtRp4564
(dp4565
g7
F6000
sg8
F5800
sg9
(dp4566
g11
I1000
ssg12
F6000
sg13
F5800
sg14
F1500
sg15
F1750
sbag2
(g3
g4
NtRp4567
(dp4568
g7
F3800
sg8
F3600
sg9
(dp4569
g11
I1000
ssg12
F4000
sg13
F3800
sg14
F1750
sg15
F2000
sbag2
(g3
g4
NtRp4570
(dp4571
g7
F3800
sg8
F3600
sg9
(dp4572
g11
I1000
ssg12
F4200
sg13
F4000
sg14
F1750
sg15
F2000
sbag2
(g3
g4
NtRp4573
(dp4574
g7
F3800
sg8
F3600
sg9
(dp4575
g11
I1000
ssg12
F4400
sg13
F4200
sg14
F1750
sg15
F2000
sbag2
(g3
g4
NtRp4576
(dp4577
g7
F4000
sg8
F3800
sg9
(dp4578
g11
I1000
ssg12
F4000
sg13
F3800
sg14
F1750
sg15
F2000
sbag2
(g3
g4
NtRp4579
(dp4580
g7
F4000
sg8
F3800
sg9
(dp4581
g11
I1000
ssg12
F4200
sg13
F4000
sg14
F1750
sg15
F2000
sbag2
(g3
g4
NtRp4582
(dp4583
g7
F4000
sg8
F3800
sg9
(dp4584
g11
I1000
ssg12
F4400
sg13
F4200
sg14
F1750
sg15
F2000
sbag2
(g3
g4
NtRp4585
(dp4586
g7
F4000
sg8
F3800
sg9
(dp4587
g11
I1000
ssg12
F4600
sg13
F4400
sg14
F1750
sg15
F2000
sbag2
(g3
g4
NtRp4588
(dp4589
g7
F4000
sg8
F3800
sg9
(dp4590
g11
I1000
ssg12
F4800
sg13
F4600
sg14
F1750
sg15
F2000
sbag2
(g3
g4
NtRp4591
(dp4592
g7
F4200
sg8
F4000
sg9
(dp4593
g11
I1000
ssg12
F4000
sg13
F3800
sg14
F1750
sg15
F2000
sbag2
(g3
g4
NtRp4594
(dp4595
g7
F4200
sg8
F4000
sg9
(dp4596
g11
I1000
ssg12
F4200
sg13
F4000
sg14
F1750
sg15
F2000
sbag2
(g3
g4
NtRp4597
(dp4598
g7
F4200
sg8
F4000
sg9
(dp4599
g11
I1000
ssg12
F4400
sg13
F4200
sg14
F1750
sg15
F2000
sbag2
(g3
g4
NtRp4600
(dp4601
g7
F4200
sg8
F4000
sg9
(dp4602
g11
I1000
ssg12
F4600
sg13
F4400
sg14
F1750
sg15
F2000
sbag2
(g3
g4
NtRp4603
(dp4604
g7
F4200
sg8
F4000
sg9
(dp4605
g11
I1000
ssg12
F4800
sg13
F4600
sg14
F1750
sg15
F2000
sbag2
(g3
g4
NtRp4606
(dp4607
g7
F4200
sg8
F4000
sg9
(dp4608
g11
I1000
ssg12
F5000
sg13
F4800
sg14
F1750
sg15
F2000
sbag2
(g3
g4
NtRp4609
(dp4610
g7
F4400
sg8
F4200
sg9
(dp4611
g11
I1000
ssg12
F4000
sg13
F3800
sg14
F1750
sg15
F2000
sbag2
(g3
g4
NtRp4612
(dp4613
g7
F4400
sg8
F4200
sg9
(dp4614
g11
I1000
ssg12
F4200
sg13
F4000
sg14
F1750
sg15
F2000
sbag2
(g3
g4
NtRp4615
(dp4616
g7
F4400
sg8
F4200
sg9
(dp4617
g11
I1000
ssg12
F4400
sg13
F4200
sg14
F1750
sg15
F2000
sbag2
(g3
g4
NtRp4618
(dp4619
g7
F4400
sg8
F4200
sg9
(dp4620
g11
I1000
ssg12
F4600
sg13
F4400
sg14
F1750
sg15
F2000
sbag2
(g3
g4
NtRp4621
(dp4622
g7
F4400
sg8
F4200
sg9
(dp4623
g11
I1000
ssg12
F4800
sg13
F4600
sg14
F1750
sg15
F2000
sbag2
(g3
g4
NtRp4624
(dp4625
g7
F4400
sg8
F4200
sg9
(dp4626
g11
I1000
ssg12
F5000
sg13
F4800
sg14
F1750
sg15
F2000
sbag2
(g3
g4
NtRp4627
(dp4628
g7
F4400
sg8
F4200
sg9
(dp4629
g11
I1000
ssg12
F5200
sg13
F5000
sg14
F1750
sg15
F2000
sbag2
(g3
g4
NtRp4630
(dp4631
g7
F4400
sg8
F4200
sg9
(dp4632
g11
I1000
ssg12
F5400
sg13
F5200
sg14
F1750
sg15
F2000
sbag2
(g3
g4
NtRp4633
(dp4634
g7
F4600
sg8
F4400
sg9
(dp4635
g11
I1000
ssg12
F4200
sg13
F4000
sg14
F1750
sg15
F2000
sbag2
(g3
g4
NtRp4636
(dp4637
g7
F4600
sg8
F4400
sg9
(dp4638
g11
I1000
ssg12
F4400
sg13
F4200
sg14
F1750
sg15
F2000
sbag2
(g3
g4
NtRp4639
(dp4640
g7
F4600
sg8
F4400
sg9
(dp4641
g11
I1000
ssg12
F4600
sg13
F4400
sg14
F1750
sg15
F2000
sbag2
(g3
g4
NtRp4642
(dp4643
g7
F4600
sg8
F4400
sg9
(dp4644
g11
I1000
ssg12
F4800
sg13
F4600
sg14
F1750
sg15
F2000
sbag2
(g3
g4
NtRp4645
(dp4646
g7
F4600
sg8
F4400
sg9
(dp4647
g11
I1000
ssg12
F5000
sg13
F4800
sg14
F1750
sg15
F2000
sbag2
(g3
g4
NtRp4648
(dp4649
g7
F4600
sg8
F4400
sg9
(dp4650
g11
I1000
ssg12
F5200
sg13
F5000
sg14
F1750
sg15
F2000
sbag2
(g3
g4
NtRp4651
(dp4652
g7
F4600
sg8
F4400
sg9
(dp4653
g11
I1000
ssg12
F5400
sg13
F5200
sg14
F1750
sg15
F2000
sbag2
(g3
g4
NtRp4654
(dp4655
g7
F4600
sg8
F4400
sg9
(dp4656
g11
I1000
ssg12
F5600
sg13
F5400
sg14
F1750
sg15
F2000
sbag2
(g3
g4
NtRp4657
(dp4658
g7
F4800
sg8
F4600
sg9
(dp4659
g11
I1000
ssg12
F4400
sg13
F4200
sg14
F1750
sg15
F2000
sbag2
(g3
g4
NtRp4660
(dp4661
g7
F4800
sg8
F4600
sg9
(dp4662
g11
I1000
ssg12
F4600
sg13
F4400
sg14
F1750
sg15
F2000
sbag2
(g3
g4
NtRp4663
(dp4664
g7
F4800
sg8
F4600
sg9
(dp4665
g11
I1000
ssg12
F4800
sg13
F4600
sg14
F1750
sg15
F2000
sbag2
(g3
g4
NtRp4666
(dp4667
g7
F4800
sg8
F4600
sg9
(dp4668
g11
I1000
ssg12
F5000
sg13
F4800
sg14
F1750
sg15
F2000
sbag2
(g3
g4
NtRp4669
(dp4670
g7
F4800
sg8
F4600
sg9
(dp4671
g11
I1000
ssg12
F5200
sg13
F5000
sg14
F1750
sg15
F2000
sbag2
(g3
g4
NtRp4672
(dp4673
g7
F4800
sg8
F4600
sg9
(dp4674
g11
I1000
ssg12
F5400
sg13
F5200
sg14
F1750
sg15
F2000
sbag2
(g3
g4
NtRp4675
(dp4676
g7
F4800
sg8
F4600
sg9
(dp4677
g11
I1000
ssg12
F5600
sg13
F5400
sg14
F1750
sg15
F2000
sbag2
(g3
g4
NtRp4678
(dp4679
g7
F4800
sg8
F4600
sg9
(dp4680
g11
I1000
ssg12
F5800
sg13
F5600
sg14
F1750
sg15
F2000
sbag2
(g3
g4
NtRp4681
(dp4682
g7
F5000
sg8
F4800
sg9
(dp4683
g11
I1000
ssg12
F4600
sg13
F4400
sg14
F1750
sg15
F2000
sbag2
(g3
g4
NtRp4684
(dp4685
g7
F5000
sg8
F4800
sg9
(dp4686
g11
I1000
ssg12
F4800
sg13
F4600
sg14
F1750
sg15
F2000
sbag2
(g3
g4
NtRp4687
(dp4688
g7
F5000
sg8
F4800
sg9
(dp4689
g11
I1000
ssg12
F5000
sg13
F4800
sg14
F1750
sg15
F2000
sbag2
(g3
g4
NtRp4690
(dp4691
g7
F5000
sg8
F4800
sg9
(dp4692
g11
I1000
ssg12
F5200
sg13
F5000
sg14
F1750
sg15
F2000
sbag2
(g3
g4
NtRp4693
(dp4694
g7
F5000
sg8
F4800
sg9
(dp4695
g11
I1000
ssg12
F5400
sg13
F5200
sg14
F1750
sg15
F2000
sbag2
(g3
g4
NtRp4696
(dp4697
g7
F5000
sg8
F4800
sg9
(dp4698
g11
I1000
ssg12
F5600
sg13
F5400
sg14
F1750
sg15
F2000
sbag2
(g3
g4
NtRp4699
(dp4700
g7
F5000
sg8
F4800
sg9
(dp4701
g11
I1000
ssg12
F5800
sg13
F5600
sg14
F1750
sg15
F2000
sbag2
(g3
g4
NtRp4702
(dp4703
g7
F5200
sg8
F5000
sg9
(dp4704
g11
I1000
ssg12
F4800
sg13
F4600
sg14
F1750
sg15
F2000
sbag2
(g3
g4
NtRp4705
(dp4706
g7
F5200
sg8
F5000
sg9
(dp4707
g11
I1000
ssg12
F5000
sg13
F4800
sg14
F1750
sg15
F2000
sbag2
(g3
g4
NtRp4708
(dp4709
g7
F5200
sg8
F5000
sg9
(dp4710
g11
I1000
ssg12
F5200
sg13
F5000
sg14
F1750
sg15
F2000
sbag2
(g3
g4
NtRp4711
(dp4712
g7
F5200
sg8
F5000
sg9
(dp4713
g11
I1000
ssg12
F5400
sg13
F5200
sg14
F1750
sg15
F2000
sbag2
(g3
g4
NtRp4714
(dp4715
g7
F5200
sg8
F5000
sg9
(dp4716
g11
I1000
ssg12
F5600
sg13
F5400
sg14
F1750
sg15
F2000
sbag2
(g3
g4
NtRp4717
(dp4718
g7
F5200
sg8
F5000
sg9
(dp4719
g11
I1000
ssg12
F5800
sg13
F5600
sg14
F1750
sg15
F2000
sbag2
(g3
g4
NtRp4720
(dp4721
g7
F5400
sg8
F5200
sg9
(dp4722
g11
I1000
ssg12
F4800
sg13
F4600
sg14
F1750
sg15
F2000
sbag2
(g3
g4
NtRp4723
(dp4724
g7
F5400
sg8
F5200
sg9
(dp4725
g11
I1000
ssg12
F5000
sg13
F4800
sg14
F1750
sg15
F2000
sbag2
(g3
g4
NtRp4726
(dp4727
g7
F5400
sg8
F5200
sg9
(dp4728
g11
I1000
ssg12
F5200
sg13
F5000
sg14
F1750
sg15
F2000
sbag2
(g3
g4
NtRp4729
(dp4730
g7
F5400
sg8
F5200
sg9
(dp4731
g11
I1000
ssg12
F5400
sg13
F5200
sg14
F1750
sg15
F2000
sbag2
(g3
g4
NtRp4732
(dp4733
g7
F5400
sg8
F5200
sg9
(dp4734
g11
I1000
ssg12
F5600
sg13
F5400
sg14
F1750
sg15
F2000
sbag2
(g3
g4
NtRp4735
(dp4736
g7
F5400
sg8
F5200
sg9
(dp4737
g11
I1000
ssg12
F5800
sg13
F5600
sg14
F1750
sg15
F2000
sbag2
(g3
g4
NtRp4738
(dp4739
g7
F5600
sg8
F5400
sg9
(dp4740
g11
I1000
ssg12
F5000
sg13
F4800
sg14
F1750
sg15
F2000
sbag2
(g3
g4
NtRp4741
(dp4742
g7
F5600
sg8
F5400
sg9
(dp4743
g11
I1000
ssg12
F5200
sg13
F5000
sg14
F1750
sg15
F2000
sbag2
(g3
g4
NtRp4744
(dp4745
g7
F5600
sg8
F5400
sg9
(dp4746
g11
I1000
ssg12
F5400
sg13
F5200
sg14
F1750
sg15
F2000
sbag2
(g3
g4
NtRp4747
(dp4748
g7
F5600
sg8
F5400
sg9
(dp4749
g11
I1000
ssg12
F5600
sg13
F5400
sg14
F1750
sg15
F2000
sbag2
(g3
g4
NtRp4750
(dp4751
g7
F5600
sg8
F5400
sg9
(dp4752
g11
I1000
ssg12
F5800
sg13
F5600
sg14
F1750
sg15
F2000
sbag2
(g3
g4
NtRp4753
(dp4754
g7
F5800
sg8
F5600
sg9
(dp4755
g11
I1000
ssg12
F5200
sg13
F5000
sg14
F1750
sg15
F2000
sbag2
(g3
g4
NtRp4756
(dp4757
g7
F5800
sg8
F5600
sg9
(dp4758
g11
I1000
ssg12
F5400
sg13
F5200
sg14
F1750
sg15
F2000
sbag2
(g3
g4
NtRp4759
(dp4760
g7
F5800
sg8
F5600
sg9
(dp4761
g11
I1000
ssg12
F5600
sg13
F5400
sg14
F1750
sg15
F2000
sbag2
(g3
g4
NtRp4762
(dp4763
g7
F5200
sg8
F5000
sg9
(dp4764
g11
I1000
ssg12
F5400
sg13
F5200
sg14
F2000
sg15
F2250
sba.